
BUILD/HelloWorld.elf:     file format elf32-littlearm


Disassembly of section .text:

00000000 <g_pfnVectors>:
       0:	00 80 00 10 fd 00 00 00 01 4b 00 00 09 4b 00 00     .........K...K..
	...
      1c:	f9 e8 fe ef 00 00 00 00 00 00 00 00 00 00 00 00     ................
      2c:	0d 4b 00 00 00 00 00 00 00 00 00 00 11 4b 00 00     .K...........K..
      3c:	c1 38 00 00 05 4b 00 00 05 4b 00 00 05 4b 00 00     .8...K...K...K..
      4c:	05 4b 00 00 05 4b 00 00 05 4b 00 00 05 4b 00 00     .K...K...K...K..
      5c:	05 4b 00 00 05 4b 00 00 05 4b 00 00 05 4b 00 00     .K...K...K...K..
      6c:	05 4b 00 00 05 4b 00 00 05 4b 00 00 05 4b 00 00     .K...K...K...K..
      7c:	05 4b 00 00 05 4b 00 00 05 4b 00 00 05 4b 00 00     .K...K...K...K..
      8c:	05 4b 00 00 05 4b 00 00 05 4b 00 00 05 4b 00 00     .K...K...K...K..
      9c:	05 4b 00 00 05 4b 00 00 05 4b 00 00 05 4b 00 00     .K...K...K...K..
      ac:	05 4b 00 00 05 4b 00 00 05 4b 00 00 05 4b 00 00     .K...K...K...K..
      bc:	00 00 00 00                                         ....

000000c0 <__data_section_table>:
__data_section_table():
      c0:	0001922c 	.word	0x0001922c
      c4:	10000100 	.word	0x10000100
      c8:	000000a4 	.word	0x000000a4
      cc:	0001922c 	.word	0x0001922c
      d0:	20000000 	.word	0x20000000
      d4:	00000000 	.word	0x00000000
      d8:	0001922c 	.word	0x0001922c
      dc:	20004000 	.word	0x20004000
      e0:	00000000 	.word	0x00000000

000000e4 <__bss_section_table>:
__bss_section_table():
      e4:	100001a8 	.word	0x100001a8
      e8:	00006120 	.word	0x00006120
      ec:	20000000 	.word	0x20000000
      f0:	00000000 	.word	0x00000000
      f4:	20004000 	.word	0x20004000
      f8:	00000000 	.word	0x00000000

000000fc <ResetISR>:
ResetISR():
/home/manga/Projects/Pokitto/zboy-0.60/PokittoLib/mbed-pokitto/targets/cmsis/TARGET_NXP/TARGET_LPC11U6X/TOOLCHAIN_GCC_ARM/TARGET_LPC11U68/startup_LPC11U68.cpp:134


/* Reset entry point*/
extern "C" void software_init_hook(void) __attribute__((weak));

AFTER_VECTORS void ResetISR(void) {
      fc:	b570      	push	{r4, r5, r6, lr}
/home/manga/Projects/Pokitto/zboy-0.60/PokittoLib/mbed-pokitto/targets/cmsis/TARGET_NXP/TARGET_LPC11U6X/TOOLCHAIN_GCC_ARM/TARGET_LPC11U68/startup_LPC11U68.cpp:140
    unsigned int LoadAddr, ExeAddr, SectionLen;
    unsigned int *SectionTableAddr;
    
    SectionTableAddr = &__data_section_table;
    
    while (SectionTableAddr < &__data_section_table_end) {
      fe:	4b1d      	ldr	r3, [pc, #116]	; (174 <ResetISR+0x78>)
     100:	4e1d      	ldr	r6, [pc, #116]	; (178 <ResetISR+0x7c>)
     102:	42b3      	cmp	r3, r6
     104:	d210      	bcs.n	128 <ResetISR+0x2c>
/home/manga/Projects/Pokitto/zboy-0.60/PokittoLib/mbed-pokitto/targets/cmsis/TARGET_NXP/TARGET_LPC11U6X/TOOLCHAIN_GCC_ARM/TARGET_LPC11U68/startup_LPC11U68.cpp:141
        LoadAddr = *SectionTableAddr++;
     106:	6818      	ldr	r0, [r3, #0]
/home/manga/Projects/Pokitto/zboy-0.60/PokittoLib/mbed-pokitto/targets/cmsis/TARGET_NXP/TARGET_LPC11U6X/TOOLCHAIN_GCC_ARM/TARGET_LPC11U68/startup_LPC11U68.cpp:142
        ExeAddr = *SectionTableAddr++;
     108:	6859      	ldr	r1, [r3, #4]
     10a:	330c      	adds	r3, #12
/home/manga/Projects/Pokitto/zboy-0.60/PokittoLib/mbed-pokitto/targets/cmsis/TARGET_NXP/TARGET_LPC11U6X/TOOLCHAIN_GCC_ARM/TARGET_LPC11U68/startup_LPC11U68.cpp:143
        SectionLen = *SectionTableAddr++;
     10c:	1f1a      	subs	r2, r3, #4
     10e:	6815      	ldr	r5, [r2, #0]
     110:	1a09      	subs	r1, r1, r0
data_init():
/home/manga/Projects/Pokitto/zboy-0.60/PokittoLib/mbed-pokitto/targets/cmsis/TARGET_NXP/TARGET_LPC11U6X/TOOLCHAIN_GCC_ARM/TARGET_LPC11U68/startup_LPC11U68.cpp:119
    unsigned int *pulSrc = (unsigned int*) romstart;
     112:	0002      	movs	r2, r0
/home/manga/Projects/Pokitto/zboy-0.60/PokittoLib/mbed-pokitto/targets/cmsis/TARGET_NXP/TARGET_LPC11U6X/TOOLCHAIN_GCC_ARM/TARGET_LPC11U68/startup_LPC11U68.cpp:121
    for (loop = 0; loop < len; loop = loop + 4) *pulDest++ = *pulSrc++;
     114:	2d00      	cmp	r5, #0
     116:	d0f4      	beq.n	102 <ResetISR+0x6>
     118:	6814      	ldr	r4, [r2, #0]
     11a:	5054      	str	r4, [r2, r1]
     11c:	3204      	adds	r2, #4
     11e:	1a14      	subs	r4, r2, r0
     120:	42a5      	cmp	r5, r4
     122:	d8f9      	bhi.n	118 <ResetISR+0x1c>
ResetISR():
/home/manga/Projects/Pokitto/zboy-0.60/PokittoLib/mbed-pokitto/targets/cmsis/TARGET_NXP/TARGET_LPC11U6X/TOOLCHAIN_GCC_ARM/TARGET_LPC11U68/startup_LPC11U68.cpp:140
    while (SectionTableAddr < &__data_section_table_end) {
     124:	42b3      	cmp	r3, r6
     126:	d3ee      	bcc.n	106 <ResetISR+0xa>
/home/manga/Projects/Pokitto/zboy-0.60/PokittoLib/mbed-pokitto/targets/cmsis/TARGET_NXP/TARGET_LPC11U6X/TOOLCHAIN_GCC_ARM/TARGET_LPC11U68/startup_LPC11U68.cpp:146
        data_init(LoadAddr, ExeAddr, SectionLen);
    }
    while (SectionTableAddr < &__bss_section_table_end) {
     128:	4914      	ldr	r1, [pc, #80]	; (17c <ResetISR+0x80>)
     12a:	428b      	cmp	r3, r1
     12c:	d214      	bcs.n	158 <ResetISR+0x5c>
     12e:	001a      	movs	r2, r3
     130:	2007      	movs	r0, #7
bss_init():
/home/manga/Projects/Pokitto/zboy-0.60/PokittoLib/mbed-pokitto/targets/cmsis/TARGET_NXP/TARGET_LPC11U6X/TOOLCHAIN_GCC_ARM/TARGET_LPC11U68/startup_LPC11U68.cpp:127
    for (loop = 0; loop < len; loop = loop + 4) *pulDest++ = 0;
     132:	2600      	movs	r6, #0
     134:	3208      	adds	r2, #8
     136:	3107      	adds	r1, #7
     138:	1a89      	subs	r1, r1, r2
     13a:	4381      	bics	r1, r0
     13c:	1889      	adds	r1, r1, r2
ResetISR():
/home/manga/Projects/Pokitto/zboy-0.60/PokittoLib/mbed-pokitto/targets/cmsis/TARGET_NXP/TARGET_LPC11U6X/TOOLCHAIN_GCC_ARM/TARGET_LPC11U68/startup_LPC11U68.cpp:147
        ExeAddr = *SectionTableAddr++;
     13e:	681d      	ldr	r5, [r3, #0]
/home/manga/Projects/Pokitto/zboy-0.60/PokittoLib/mbed-pokitto/targets/cmsis/TARGET_NXP/TARGET_LPC11U6X/TOOLCHAIN_GCC_ARM/TARGET_LPC11U68/startup_LPC11U68.cpp:148
        SectionLen = *SectionTableAddr++;
     140:	685c      	ldr	r4, [r3, #4]
bss_init():
/home/manga/Projects/Pokitto/zboy-0.60/PokittoLib/mbed-pokitto/targets/cmsis/TARGET_NXP/TARGET_LPC11U6X/TOOLCHAIN_GCC_ARM/TARGET_LPC11U68/startup_LPC11U68.cpp:125
    unsigned int *pulDest = (unsigned int*) start;
     142:	002a      	movs	r2, r5
/home/manga/Projects/Pokitto/zboy-0.60/PokittoLib/mbed-pokitto/targets/cmsis/TARGET_NXP/TARGET_LPC11U6X/TOOLCHAIN_GCC_ARM/TARGET_LPC11U68/startup_LPC11U68.cpp:127
    for (loop = 0; loop < len; loop = loop + 4) *pulDest++ = 0;
     144:	2c00      	cmp	r4, #0
     146:	d004      	beq.n	152 <ResetISR+0x56>
     148:	6016      	str	r6, [r2, #0]
     14a:	3204      	adds	r2, #4
     14c:	1b50      	subs	r0, r2, r5
     14e:	4284      	cmp	r4, r0
     150:	d8fa      	bhi.n	148 <ResetISR+0x4c>
     152:	3308      	adds	r3, #8
ResetISR():
/home/manga/Projects/Pokitto/zboy-0.60/PokittoLib/mbed-pokitto/targets/cmsis/TARGET_NXP/TARGET_LPC11U6X/TOOLCHAIN_GCC_ARM/TARGET_LPC11U68/startup_LPC11U68.cpp:146
    while (SectionTableAddr < &__bss_section_table_end) {
     154:	4299      	cmp	r1, r3
     156:	d1f2      	bne.n	13e <ResetISR+0x42>
/home/manga/Projects/Pokitto/zboy-0.60/PokittoLib/mbed-pokitto/targets/cmsis/TARGET_NXP/TARGET_LPC11U6X/TOOLCHAIN_GCC_ARM/TARGET_LPC11U68/startup_LPC11U68.cpp:152
        bss_init(ExeAddr, SectionLen);
    }
    
    SystemInit();
     158:	f004 fcfc 	bl	4b54 <SystemInit>
/home/manga/Projects/Pokitto/zboy-0.60/PokittoLib/mbed-pokitto/targets/cmsis/TARGET_NXP/TARGET_LPC11U6X/TOOLCHAIN_GCC_ARM/TARGET_LPC11U68/startup_LPC11U68.cpp:153
    if (software_init_hook) 
     15c:	4b08      	ldr	r3, [pc, #32]	; (180 <ResetISR+0x84>)
     15e:	2b00      	cmp	r3, #0
     160:	d002      	beq.n	168 <ResetISR+0x6c>
/home/manga/Projects/Pokitto/zboy-0.60/PokittoLib/mbed-pokitto/targets/cmsis/TARGET_NXP/TARGET_LPC11U6X/TOOLCHAIN_GCC_ARM/TARGET_LPC11U68/startup_LPC11U68.cpp:154
        software_init_hook(); 
     162:	e000      	b.n	166 <ResetISR+0x6a>
     164:	bf00      	nop
     166:	e7fe      	b.n	166 <ResetISR+0x6a>
/home/manga/Projects/Pokitto/zboy-0.60/PokittoLib/mbed-pokitto/targets/cmsis/TARGET_NXP/TARGET_LPC11U6X/TOOLCHAIN_GCC_ARM/TARGET_LPC11U68/startup_LPC11U68.cpp:156
    else {
        __libc_init_array();
     168:	f00d fd58 	bl	dc1c <__libc_init_array>
/home/manga/Projects/Pokitto/zboy-0.60/PokittoLib/mbed-pokitto/targets/cmsis/TARGET_NXP/TARGET_LPC11U6X/TOOLCHAIN_GCC_ARM/TARGET_LPC11U68/startup_LPC11U68.cpp:157
        main();
     16c:	f004 fc3a 	bl	49e4 <__wrap_main>
     170:	e7f9      	b.n	166 <ResetISR+0x6a>
     172:	46c0      	nop			; (mov r8, r8)
     174:	000000c0 	.word	0x000000c0
     178:	000000e4 	.word	0x000000e4
     17c:	000000fc 	.word	0x000000fc
     180:	00000000 	.word	0x00000000

00000184 <__do_global_dtors_aux>:
__do_global_dtors_aux():
     184:	b510      	push	{r4, lr}
     186:	4c06      	ldr	r4, [pc, #24]	; (1a0 <__do_global_dtors_aux+0x1c>)
     188:	7823      	ldrb	r3, [r4, #0]
     18a:	2b00      	cmp	r3, #0
     18c:	d107      	bne.n	19e <__do_global_dtors_aux+0x1a>
     18e:	4b05      	ldr	r3, [pc, #20]	; (1a4 <__do_global_dtors_aux+0x20>)
     190:	2b00      	cmp	r3, #0
     192:	d002      	beq.n	19a <__do_global_dtors_aux+0x16>
     194:	4804      	ldr	r0, [pc, #16]	; (1a8 <__do_global_dtors_aux+0x24>)
     196:	e000      	b.n	19a <__do_global_dtors_aux+0x16>
     198:	bf00      	nop
     19a:	2301      	movs	r3, #1
     19c:	7023      	strb	r3, [r4, #0]
     19e:	bd10      	pop	{r4, pc}
     1a0:	100001a8 	.word	0x100001a8
     1a4:	00000000 	.word	0x00000000
     1a8:	0001922c 	.word	0x0001922c

000001ac <frame_dummy>:
frame_dummy():
     1ac:	4b04      	ldr	r3, [pc, #16]	; (1c0 <frame_dummy+0x14>)
     1ae:	b510      	push	{r4, lr}
     1b0:	2b00      	cmp	r3, #0
     1b2:	d003      	beq.n	1bc <frame_dummy+0x10>
     1b4:	4903      	ldr	r1, [pc, #12]	; (1c4 <frame_dummy+0x18>)
     1b6:	4804      	ldr	r0, [pc, #16]	; (1c8 <frame_dummy+0x1c>)
     1b8:	e000      	b.n	1bc <frame_dummy+0x10>
     1ba:	bf00      	nop
     1bc:	bd10      	pop	{r4, pc}
     1be:	46c0      	nop			; (mov r8, r8)
     1c0:	00000000 	.word	0x00000000
     1c4:	100001ac 	.word	0x100001ac
     1c8:	0001922c 	.word	0x0001922c

000001cc <_ZN7Pokitto9Backlight5beginEv>:
_ZN7Pokitto9Backlight5beginEv():
/home/manga/Projects/Pokitto/zboy-0.60/PokittoLib/POKITTO_CORE/PokittoBacklight.cpp:49
uint8_t Backlight::backlightMin, Backlight::backlightMax;
uint16_t Backlight::ambientLightMin, Backlight::ambientLightMax;

void Backlight::begin() {

}
     1cc:	4770      	bx	lr
     1ce:	46c0      	nop			; (mov r8, r8)

000001d0 <_ZN7Pokitto9Backlight3setEh>:
_ZN7Pokitto9Backlight3setEh():
/home/manga/Projects/Pokitto/zboy-0.60/PokittoLib/POKITTO_CORE/PokittoBacklight.cpp:53

void Backlight::set(uint8_t value) {

}
     1d0:	4770      	bx	lr
     1d2:	46c0      	nop			; (mov r8, r8)

000001d4 <_ZN7Pokitto7Battery5beginEv>:
_ZN7Pokitto7Battery5beginEv():
/home/manga/Projects/Pokitto/zboy-0.60/PokittoLib/POKITTO_CORE/PokittoBattery.cpp:54
#endif

void Battery::begin() {
	#ifndef POK_SIM
  // level = BatLevelPin * 0xFF;
  level = 0;
     1d4:	2200      	movs	r2, #0
     1d6:	4b01      	ldr	r3, [pc, #4]	; (1dc <_ZN7Pokitto7Battery5beginEv+0x8>)
     1d8:	701a      	strb	r2, [r3, #0]
/home/manga/Projects/Pokitto/zboy-0.60/PokittoLib/POKITTO_CORE/PokittoBattery.cpp:59
	#else
	//ToDo - simulate the battery on the simulator
	level = 0;
	#endif
}
     1da:	4770      	bx	lr
     1dc:	100001c5 	.word	0x100001c5

000001e0 <_ZN7Pokitto7Battery6updateEv>:
_ZN7Pokitto7Battery6updateEv():
     1e0:	2200      	movs	r2, #0
     1e2:	4b01      	ldr	r3, [pc, #4]	; (1e8 <_ZN7Pokitto7Battery6updateEv+0x8>)
     1e4:	701a      	strb	r2, [r3, #0]
     1e6:	4770      	bx	lr
     1e8:	100001c5 	.word	0x100001c5

000001ec <_GLOBAL__sub_I__ZN7Pokitto7Battery4showE>:
_GLOBAL__sub_I__ZN7Pokitto7Battery4showE():
/home/manga/Projects/Pokitto/zboy-0.60/PokittoLib/POKITTO_CORE/PokittoBattery.cpp:69
    // level = BatLevelPin * 0xFF;
  level = 0;
	#else
	//ToDo - simulate the battery on the simulator
	#endif
}
     1ec:	b510      	push	{r4, lr}
_ZN4mbed8AnalogInC4E7PinName():
/home/manga/Projects/Pokitto/zboy-0.60/./PokittoLib/mbed-pokitto/api/AnalogIn.h:56
     *
     * @param pin AnalogIn pin to connect to
     * @param name (optional) A string to identify the object
     */
    AnalogIn(PinName pin) {
        analogin_init(&_adc, pin);
     1ee:	4902      	ldr	r1, [pc, #8]	; (1f8 <_GLOBAL__sub_I__ZN7Pokitto7Battery4showE+0xc>)
     1f0:	4802      	ldr	r0, [pc, #8]	; (1fc <_GLOBAL__sub_I__ZN7Pokitto7Battery4showE+0x10>)
     1f2:	f004 fd43 	bl	4c7c <analogin_init>
_GLOBAL__sub_I__ZN7Pokitto7Battery4showE():
/home/manga/Projects/Pokitto/zboy-0.60/PokittoLib/POKITTO_CORE/PokittoBattery.cpp:69
     1f6:	bd10      	pop	{r4, pc}
     1f8:	00002e5c 	.word	0x00002e5c
     1fc:	100001c4 	.word	0x100001c4

00000200 <_ZN7Pokitto7Buttons5beginEv>:
_ZN7Pokitto7Buttons5beginEv():
/home/manga/Projects/Pokitto/zboy-0.60/PokittoLib/POKITTO_CORE/PokittoButtons.cpp:49
uint8_t Buttons::buttons_held;
uint8_t Buttons::buttons_released; // from LSB up,down,left,right,a,b,c
uint16_t Buttons::cHWLongPress = CHWLONGPRESSTIMEOUT;


void Buttons::begin() {
     200:	b510      	push	{r4, lr}
/home/manga/Projects/Pokitto/zboy-0.60/PokittoLib/POKITTO_CORE/PokittoButtons.cpp:51
    #ifndef POK_SIM
    Pokitto::initButtons();
     202:	f002 fa79 	bl	26f8 <_ZN7Pokitto11initButtonsEv>
/home/manga/Projects/Pokitto/zboy-0.60/PokittoLib/POKITTO_CORE/PokittoButtons.cpp:53
    #endif // POK_SIM
}
     206:	bd10      	pop	{r4, pc}

00000208 <_ZN7Pokitto7Buttons6updateEv>:
_ZN7Pokitto7Buttons6updateEv():
/home/manga/Projects/Pokitto/zboy-0.60/PokittoLib/POKITTO_CORE/PokittoButtons.cpp:62
    if (console.conscounter) return;
    #endif // POK_USE_CONSOLE
    #ifndef POK_SIM
        /** HARDWARE CODE **/
    for (uint8_t thisButton = 0; thisButton < NUM_BTN; thisButton++) {
        if (Pokitto::heldStates[thisButton]) { //if button pressed
     208:	4a4d      	ldr	r2, [pc, #308]	; (340 <_ZN7Pokitto7Buttons6updateEv+0x138>)
     20a:	4b4e      	ldr	r3, [pc, #312]	; (344 <_ZN7Pokitto7Buttons6updateEv+0x13c>)
     20c:	7810      	ldrb	r0, [r2, #0]
     20e:	7819      	ldrb	r1, [r3, #0]
     210:	2800      	cmp	r0, #0
     212:	d000      	beq.n	216 <_ZN7Pokitto7Buttons6updateEv+0xe>
     214:	e06d      	b.n	2f2 <_ZN7Pokitto7Buttons6updateEv+0xea>
/home/manga/Projects/Pokitto/zboy-0.60/PokittoLib/POKITTO_CORE/PokittoButtons.cpp:66
            states[thisButton]++; //increase button hold time
            if (states[thisButton]==0xFF) states[thisButton]=2; // PREVENT WRAPAROUND!!!!
        } else {
            if (states[thisButton] == 0)//button idle
     216:	2900      	cmp	r1, #0
     218:	d004      	beq.n	224 <_ZN7Pokitto7Buttons6updateEv+0x1c>
/home/manga/Projects/Pokitto/zboy-0.60/PokittoLib/POKITTO_CORE/PokittoButtons.cpp:68
                continue;
            if (states[thisButton] == 0xFF)//if previously released
     21a:	29ff      	cmp	r1, #255	; 0xff
     21c:	d100      	bne.n	220 <_ZN7Pokitto7Buttons6updateEv+0x18>
     21e:	e087      	b.n	330 <_ZN7Pokitto7Buttons6updateEv+0x128>
/home/manga/Projects/Pokitto/zboy-0.60/PokittoLib/POKITTO_CORE/PokittoButtons.cpp:71
                states[thisButton] = 0; //set to idle
            else
                states[thisButton] = 0xFF; //button just released
     220:	21ff      	movs	r1, #255	; 0xff
     222:	7019      	strb	r1, [r3, #0]
/home/manga/Projects/Pokitto/zboy-0.60/PokittoLib/POKITTO_CORE/PokittoButtons.cpp:62
        if (Pokitto::heldStates[thisButton]) { //if button pressed
     224:	7850      	ldrb	r0, [r2, #1]
     226:	7859      	ldrb	r1, [r3, #1]
     228:	2800      	cmp	r0, #0
     22a:	d15c      	bne.n	2e6 <_ZN7Pokitto7Buttons6updateEv+0xde>
/home/manga/Projects/Pokitto/zboy-0.60/PokittoLib/POKITTO_CORE/PokittoButtons.cpp:66
            if (states[thisButton] == 0)//button idle
     22c:	2900      	cmp	r1, #0
     22e:	d004      	beq.n	23a <_ZN7Pokitto7Buttons6updateEv+0x32>
/home/manga/Projects/Pokitto/zboy-0.60/PokittoLib/POKITTO_CORE/PokittoButtons.cpp:68
            if (states[thisButton] == 0xFF)//if previously released
     230:	29ff      	cmp	r1, #255	; 0xff
     232:	d100      	bne.n	236 <_ZN7Pokitto7Buttons6updateEv+0x2e>
     234:	e07e      	b.n	334 <_ZN7Pokitto7Buttons6updateEv+0x12c>
/home/manga/Projects/Pokitto/zboy-0.60/PokittoLib/POKITTO_CORE/PokittoButtons.cpp:71
                states[thisButton] = 0xFF; //button just released
     236:	21ff      	movs	r1, #255	; 0xff
     238:	7059      	strb	r1, [r3, #1]
/home/manga/Projects/Pokitto/zboy-0.60/PokittoLib/POKITTO_CORE/PokittoButtons.cpp:62
        if (Pokitto::heldStates[thisButton]) { //if button pressed
     23a:	7890      	ldrb	r0, [r2, #2]
     23c:	7899      	ldrb	r1, [r3, #2]
     23e:	2800      	cmp	r0, #0
     240:	d14b      	bne.n	2da <_ZN7Pokitto7Buttons6updateEv+0xd2>
/home/manga/Projects/Pokitto/zboy-0.60/PokittoLib/POKITTO_CORE/PokittoButtons.cpp:66
            if (states[thisButton] == 0)//button idle
     242:	2900      	cmp	r1, #0
     244:	d004      	beq.n	250 <_ZN7Pokitto7Buttons6updateEv+0x48>
/home/manga/Projects/Pokitto/zboy-0.60/PokittoLib/POKITTO_CORE/PokittoButtons.cpp:68
            if (states[thisButton] == 0xFF)//if previously released
     246:	29ff      	cmp	r1, #255	; 0xff
     248:	d100      	bne.n	24c <_ZN7Pokitto7Buttons6updateEv+0x44>
     24a:	e075      	b.n	338 <_ZN7Pokitto7Buttons6updateEv+0x130>
/home/manga/Projects/Pokitto/zboy-0.60/PokittoLib/POKITTO_CORE/PokittoButtons.cpp:71
                states[thisButton] = 0xFF; //button just released
     24c:	21ff      	movs	r1, #255	; 0xff
     24e:	7099      	strb	r1, [r3, #2]
/home/manga/Projects/Pokitto/zboy-0.60/PokittoLib/POKITTO_CORE/PokittoButtons.cpp:62
        if (Pokitto::heldStates[thisButton]) { //if button pressed
     250:	78d0      	ldrb	r0, [r2, #3]
     252:	78d9      	ldrb	r1, [r3, #3]
     254:	2800      	cmp	r0, #0
     256:	d13a      	bne.n	2ce <_ZN7Pokitto7Buttons6updateEv+0xc6>
/home/manga/Projects/Pokitto/zboy-0.60/PokittoLib/POKITTO_CORE/PokittoButtons.cpp:66
            if (states[thisButton] == 0)//button idle
     258:	2900      	cmp	r1, #0
     25a:	d004      	beq.n	266 <_ZN7Pokitto7Buttons6updateEv+0x5e>
/home/manga/Projects/Pokitto/zboy-0.60/PokittoLib/POKITTO_CORE/PokittoButtons.cpp:68
            if (states[thisButton] == 0xFF)//if previously released
     25c:	29ff      	cmp	r1, #255	; 0xff
     25e:	d100      	bne.n	262 <_ZN7Pokitto7Buttons6updateEv+0x5a>
     260:	e06c      	b.n	33c <_ZN7Pokitto7Buttons6updateEv+0x134>
/home/manga/Projects/Pokitto/zboy-0.60/PokittoLib/POKITTO_CORE/PokittoButtons.cpp:71
                states[thisButton] = 0xFF; //button just released
     262:	21ff      	movs	r1, #255	; 0xff
     264:	70d9      	strb	r1, [r3, #3]
/home/manga/Projects/Pokitto/zboy-0.60/PokittoLib/POKITTO_CORE/PokittoButtons.cpp:62
        if (Pokitto::heldStates[thisButton]) { //if button pressed
     266:	7910      	ldrb	r0, [r2, #4]
     268:	7919      	ldrb	r1, [r3, #4]
     26a:	2800      	cmp	r0, #0
     26c:	d129      	bne.n	2c2 <_ZN7Pokitto7Buttons6updateEv+0xba>
/home/manga/Projects/Pokitto/zboy-0.60/PokittoLib/POKITTO_CORE/PokittoButtons.cpp:66
            if (states[thisButton] == 0)//button idle
     26e:	2900      	cmp	r1, #0
     270:	d003      	beq.n	27a <_ZN7Pokitto7Buttons6updateEv+0x72>
/home/manga/Projects/Pokitto/zboy-0.60/PokittoLib/POKITTO_CORE/PokittoButtons.cpp:68
            if (states[thisButton] == 0xFF)//if previously released
     272:	29ff      	cmp	r1, #255	; 0xff
     274:	d058      	beq.n	328 <_ZN7Pokitto7Buttons6updateEv+0x120>
/home/manga/Projects/Pokitto/zboy-0.60/PokittoLib/POKITTO_CORE/PokittoButtons.cpp:71
                states[thisButton] = 0xFF; //button just released
     276:	21ff      	movs	r1, #255	; 0xff
     278:	7119      	strb	r1, [r3, #4]
/home/manga/Projects/Pokitto/zboy-0.60/PokittoLib/POKITTO_CORE/PokittoButtons.cpp:62
        if (Pokitto::heldStates[thisButton]) { //if button pressed
     27a:	7950      	ldrb	r0, [r2, #5]
     27c:	7959      	ldrb	r1, [r3, #5]
     27e:	2800      	cmp	r0, #0
     280:	d10f      	bne.n	2a2 <_ZN7Pokitto7Buttons6updateEv+0x9a>
/home/manga/Projects/Pokitto/zboy-0.60/PokittoLib/POKITTO_CORE/PokittoButtons.cpp:66
            if (states[thisButton] == 0)//button idle
     282:	2900      	cmp	r1, #0
     284:	d003      	beq.n	28e <_ZN7Pokitto7Buttons6updateEv+0x86>
/home/manga/Projects/Pokitto/zboy-0.60/PokittoLib/POKITTO_CORE/PokittoButtons.cpp:68
            if (states[thisButton] == 0xFF)//if previously released
     286:	29ff      	cmp	r1, #255	; 0xff
     288:	d050      	beq.n	32c <_ZN7Pokitto7Buttons6updateEv+0x124>
/home/manga/Projects/Pokitto/zboy-0.60/PokittoLib/POKITTO_CORE/PokittoButtons.cpp:71
                states[thisButton] = 0xFF; //button just released
     28a:	21ff      	movs	r1, #255	; 0xff
     28c:	7159      	strb	r1, [r3, #5]
/home/manga/Projects/Pokitto/zboy-0.60/PokittoLib/POKITTO_CORE/PokittoButtons.cpp:62
        if (Pokitto::heldStates[thisButton]) { //if button pressed
     28e:	7992      	ldrb	r2, [r2, #6]
     290:	7999      	ldrb	r1, [r3, #6]
     292:	2a00      	cmp	r2, #0
     294:	d00e      	beq.n	2b4 <_ZN7Pokitto7Buttons6updateEv+0xac>
/home/manga/Projects/Pokitto/zboy-0.60/PokittoLib/POKITTO_CORE/PokittoButtons.cpp:63
            states[thisButton]++; //increase button hold time
     296:	3101      	adds	r1, #1
     298:	b2c9      	uxtb	r1, r1
/home/manga/Projects/Pokitto/zboy-0.60/PokittoLib/POKITTO_CORE/PokittoButtons.cpp:64
            if (states[thisButton]==0xFF) states[thisButton]=2; // PREVENT WRAPAROUND!!!!
     29a:	29ff      	cmp	r1, #255	; 0xff
     29c:	d02f      	beq.n	2fe <_ZN7Pokitto7Buttons6updateEv+0xf6>
/home/manga/Projects/Pokitto/zboy-0.60/PokittoLib/POKITTO_CORE/PokittoButtons.cpp:63
            states[thisButton]++; //increase button hold time
     29e:	7199      	strb	r1, [r3, #6]
/home/manga/Projects/Pokitto/zboy-0.60/PokittoLib/POKITTO_CORE/PokittoButtons.cpp:112
                states[thisButton] = 0xFF; //button just released
        }
        }

        #endif // POK_SIM
}
     2a0:	4770      	bx	lr
/home/manga/Projects/Pokitto/zboy-0.60/PokittoLib/POKITTO_CORE/PokittoButtons.cpp:63
            states[thisButton]++; //increase button hold time
     2a2:	3101      	adds	r1, #1
     2a4:	b2c9      	uxtb	r1, r1
/home/manga/Projects/Pokitto/zboy-0.60/PokittoLib/POKITTO_CORE/PokittoButtons.cpp:64
            if (states[thisButton]==0xFF) states[thisButton]=2; // PREVENT WRAPAROUND!!!!
     2a6:	29ff      	cmp	r1, #255	; 0xff
     2a8:	d038      	beq.n	31c <_ZN7Pokitto7Buttons6updateEv+0x114>
     2aa:	7159      	strb	r1, [r3, #5]
/home/manga/Projects/Pokitto/zboy-0.60/PokittoLib/POKITTO_CORE/PokittoButtons.cpp:62
        if (Pokitto::heldStates[thisButton]) { //if button pressed
     2ac:	7992      	ldrb	r2, [r2, #6]
     2ae:	7999      	ldrb	r1, [r3, #6]
     2b0:	2a00      	cmp	r2, #0
     2b2:	d1f0      	bne.n	296 <_ZN7Pokitto7Buttons6updateEv+0x8e>
/home/manga/Projects/Pokitto/zboy-0.60/PokittoLib/POKITTO_CORE/PokittoButtons.cpp:66
            if (states[thisButton] == 0)//button idle
     2b4:	2900      	cmp	r1, #0
     2b6:	d0f3      	beq.n	2a0 <_ZN7Pokitto7Buttons6updateEv+0x98>
/home/manga/Projects/Pokitto/zboy-0.60/PokittoLib/POKITTO_CORE/PokittoButtons.cpp:68
            if (states[thisButton] == 0xFF)//if previously released
     2b8:	29ff      	cmp	r1, #255	; 0xff
     2ba:	d000      	beq.n	2be <_ZN7Pokitto7Buttons6updateEv+0xb6>
/home/manga/Projects/Pokitto/zboy-0.60/PokittoLib/POKITTO_CORE/PokittoButtons.cpp:71
                states[thisButton] = 0xFF; //button just released
     2bc:	22ff      	movs	r2, #255	; 0xff
     2be:	719a      	strb	r2, [r3, #6]
/home/manga/Projects/Pokitto/zboy-0.60/PokittoLib/POKITTO_CORE/PokittoButtons.cpp:112
}
     2c0:	e7ee      	b.n	2a0 <_ZN7Pokitto7Buttons6updateEv+0x98>
/home/manga/Projects/Pokitto/zboy-0.60/PokittoLib/POKITTO_CORE/PokittoButtons.cpp:63
            states[thisButton]++; //increase button hold time
     2c2:	3101      	adds	r1, #1
     2c4:	b2c9      	uxtb	r1, r1
/home/manga/Projects/Pokitto/zboy-0.60/PokittoLib/POKITTO_CORE/PokittoButtons.cpp:64
            if (states[thisButton]==0xFF) states[thisButton]=2; // PREVENT WRAPAROUND!!!!
     2c6:	29ff      	cmp	r1, #255	; 0xff
     2c8:	d02b      	beq.n	322 <_ZN7Pokitto7Buttons6updateEv+0x11a>
     2ca:	7119      	strb	r1, [r3, #4]
     2cc:	e7d5      	b.n	27a <_ZN7Pokitto7Buttons6updateEv+0x72>
/home/manga/Projects/Pokitto/zboy-0.60/PokittoLib/POKITTO_CORE/PokittoButtons.cpp:63
            states[thisButton]++; //increase button hold time
     2ce:	3101      	adds	r1, #1
     2d0:	b2c9      	uxtb	r1, r1
/home/manga/Projects/Pokitto/zboy-0.60/PokittoLib/POKITTO_CORE/PokittoButtons.cpp:64
            if (states[thisButton]==0xFF) states[thisButton]=2; // PREVENT WRAPAROUND!!!!
     2d2:	29ff      	cmp	r1, #255	; 0xff
     2d4:	d016      	beq.n	304 <_ZN7Pokitto7Buttons6updateEv+0xfc>
     2d6:	70d9      	strb	r1, [r3, #3]
     2d8:	e7c5      	b.n	266 <_ZN7Pokitto7Buttons6updateEv+0x5e>
/home/manga/Projects/Pokitto/zboy-0.60/PokittoLib/POKITTO_CORE/PokittoButtons.cpp:63
            states[thisButton]++; //increase button hold time
     2da:	3101      	adds	r1, #1
     2dc:	b2c9      	uxtb	r1, r1
/home/manga/Projects/Pokitto/zboy-0.60/PokittoLib/POKITTO_CORE/PokittoButtons.cpp:64
            if (states[thisButton]==0xFF) states[thisButton]=2; // PREVENT WRAPAROUND!!!!
     2de:	29ff      	cmp	r1, #255	; 0xff
     2e0:	d013      	beq.n	30a <_ZN7Pokitto7Buttons6updateEv+0x102>
     2e2:	7099      	strb	r1, [r3, #2]
     2e4:	e7b4      	b.n	250 <_ZN7Pokitto7Buttons6updateEv+0x48>
/home/manga/Projects/Pokitto/zboy-0.60/PokittoLib/POKITTO_CORE/PokittoButtons.cpp:63
            states[thisButton]++; //increase button hold time
     2e6:	3101      	adds	r1, #1
     2e8:	b2c9      	uxtb	r1, r1
/home/manga/Projects/Pokitto/zboy-0.60/PokittoLib/POKITTO_CORE/PokittoButtons.cpp:64
            if (states[thisButton]==0xFF) states[thisButton]=2; // PREVENT WRAPAROUND!!!!
     2ea:	29ff      	cmp	r1, #255	; 0xff
     2ec:	d010      	beq.n	310 <_ZN7Pokitto7Buttons6updateEv+0x108>
     2ee:	7059      	strb	r1, [r3, #1]
     2f0:	e7a3      	b.n	23a <_ZN7Pokitto7Buttons6updateEv+0x32>
/home/manga/Projects/Pokitto/zboy-0.60/PokittoLib/POKITTO_CORE/PokittoButtons.cpp:63
            states[thisButton]++; //increase button hold time
     2f2:	3101      	adds	r1, #1
     2f4:	b2c9      	uxtb	r1, r1
/home/manga/Projects/Pokitto/zboy-0.60/PokittoLib/POKITTO_CORE/PokittoButtons.cpp:64
            if (states[thisButton]==0xFF) states[thisButton]=2; // PREVENT WRAPAROUND!!!!
     2f6:	29ff      	cmp	r1, #255	; 0xff
     2f8:	d00d      	beq.n	316 <_ZN7Pokitto7Buttons6updateEv+0x10e>
     2fa:	7019      	strb	r1, [r3, #0]
     2fc:	e792      	b.n	224 <_ZN7Pokitto7Buttons6updateEv+0x1c>
/home/manga/Projects/Pokitto/zboy-0.60/PokittoLib/POKITTO_CORE/PokittoButtons.cpp:64 (discriminator 1)
     2fe:	2202      	movs	r2, #2
     300:	719a      	strb	r2, [r3, #6]
     302:	e7cd      	b.n	2a0 <_ZN7Pokitto7Buttons6updateEv+0x98>
/home/manga/Projects/Pokitto/zboy-0.60/PokittoLib/POKITTO_CORE/PokittoButtons.cpp:64
     304:	2102      	movs	r1, #2
     306:	70d9      	strb	r1, [r3, #3]
     308:	e7ad      	b.n	266 <_ZN7Pokitto7Buttons6updateEv+0x5e>
     30a:	2102      	movs	r1, #2
     30c:	7099      	strb	r1, [r3, #2]
     30e:	e79f      	b.n	250 <_ZN7Pokitto7Buttons6updateEv+0x48>
     310:	2102      	movs	r1, #2
     312:	7059      	strb	r1, [r3, #1]
     314:	e791      	b.n	23a <_ZN7Pokitto7Buttons6updateEv+0x32>
     316:	2102      	movs	r1, #2
     318:	7019      	strb	r1, [r3, #0]
     31a:	e783      	b.n	224 <_ZN7Pokitto7Buttons6updateEv+0x1c>
     31c:	2102      	movs	r1, #2
     31e:	7159      	strb	r1, [r3, #5]
     320:	e7c4      	b.n	2ac <_ZN7Pokitto7Buttons6updateEv+0xa4>
     322:	2102      	movs	r1, #2
     324:	7119      	strb	r1, [r3, #4]
     326:	e7a8      	b.n	27a <_ZN7Pokitto7Buttons6updateEv+0x72>
/home/manga/Projects/Pokitto/zboy-0.60/PokittoLib/POKITTO_CORE/PokittoButtons.cpp:69
                states[thisButton] = 0; //set to idle
     328:	7118      	strb	r0, [r3, #4]
     32a:	e7a6      	b.n	27a <_ZN7Pokitto7Buttons6updateEv+0x72>
     32c:	7158      	strb	r0, [r3, #5]
     32e:	e7ae      	b.n	28e <_ZN7Pokitto7Buttons6updateEv+0x86>
     330:	7018      	strb	r0, [r3, #0]
     332:	e777      	b.n	224 <_ZN7Pokitto7Buttons6updateEv+0x1c>
     334:	7058      	strb	r0, [r3, #1]
     336:	e780      	b.n	23a <_ZN7Pokitto7Buttons6updateEv+0x32>
     338:	7098      	strb	r0, [r3, #2]
     33a:	e789      	b.n	250 <_ZN7Pokitto7Buttons6updateEv+0x48>
     33c:	70d8      	strb	r0, [r3, #3]
     33e:	e792      	b.n	266 <_ZN7Pokitto7Buttons6updateEv+0x5e>
     340:	10001da8 	.word	0x10001da8
     344:	100001cc 	.word	0x100001cc

00000348 <_ZN7Pokitto7Buttons11pollButtonsEv>:
_ZN7Pokitto7Buttons11pollButtonsEv():
/home/manga/Projects/Pokitto/zboy-0.60/PokittoLib/POKITTO_CORE/PokittoButtons.cpp:183
void Buttons::pollButtons() {
    #ifdef POK_SIM
    simulator.pollButtons();
    #else
    uint8_t buttons_state_old = buttons_state;
    buttons_state = 0; // clear all
     348:	2300      	movs	r3, #0
/home/manga/Projects/Pokitto/zboy-0.60/PokittoLib/POKITTO_CORE/PokittoButtons.cpp:178
void Buttons::pollButtons() {
     34a:	b530      	push	{r4, r5, lr}
/home/manga/Projects/Pokitto/zboy-0.60/PokittoLib/POKITTO_CORE/PokittoButtons.cpp:182
    uint8_t buttons_state_old = buttons_state;
     34c:	491d      	ldr	r1, [pc, #116]	; (3c4 <_ZN7Pokitto7Buttons11pollButtonsEv+0x7c>)
_ZN7Pokitto7Buttons5upBtnEv():
/home/manga/Projects/Pokitto/zboy-0.60/PokittoLib/POKITTO_CORE/PokittoButtons.cpp:243

uint8_t Buttons::upBtn() {
    #ifdef POK_SIM
    return simulator.upBtn();
    #else
    return Pokitto::heldStates[BTN_UP];
     34e:	4a1e      	ldr	r2, [pc, #120]	; (3c8 <_ZN7Pokitto7Buttons11pollButtonsEv+0x80>)
_ZN7Pokitto7Buttons11pollButtonsEv():
/home/manga/Projects/Pokitto/zboy-0.60/PokittoLib/POKITTO_CORE/PokittoButtons.cpp:182
    uint8_t buttons_state_old = buttons_state;
     350:	7808      	ldrb	r0, [r1, #0]
/home/manga/Projects/Pokitto/zboy-0.60/PokittoLib/POKITTO_CORE/PokittoButtons.cpp:183
    buttons_state = 0; // clear all
     352:	700b      	strb	r3, [r1, #0]
_ZN7Pokitto7Buttons5upBtnEv():
/home/manga/Projects/Pokitto/zboy-0.60/PokittoLib/POKITTO_CORE/PokittoButtons.cpp:243
    return Pokitto::heldStates[BTN_UP];
     354:	7853      	ldrb	r3, [r2, #1]
_ZN7Pokitto7Buttons11pollButtonsEv():
/home/manga/Projects/Pokitto/zboy-0.60/PokittoLib/POKITTO_CORE/PokittoButtons.cpp:243
     356:	2402      	movs	r4, #2
/home/manga/Projects/Pokitto/zboy-0.60/PokittoLib/POKITTO_CORE/PokittoButtons.cpp:184
    if (upBtn()) buttons_state |= (1<<UPBIT);
     358:	2b00      	cmp	r3, #0
     35a:	d002      	beq.n	362 <_ZN7Pokitto7Buttons11pollButtonsEv+0x1a>
/home/manga/Projects/Pokitto/zboy-0.60/PokittoLib/POKITTO_CORE/PokittoButtons.cpp:184 (discriminator 1)
     35c:	2301      	movs	r3, #1
     35e:	3401      	adds	r4, #1
     360:	700b      	strb	r3, [r1, #0]
/home/manga/Projects/Pokitto/zboy-0.60/PokittoLib/POKITTO_CORE/PokittoButtons.cpp:185
    if (downBtn()) buttons_state |= (1<<DOWNBIT);
     362:	78d5      	ldrb	r5, [r2, #3]
     364:	2d00      	cmp	r5, #0
     366:	d001      	beq.n	36c <_ZN7Pokitto7Buttons11pollButtonsEv+0x24>
     368:	0023      	movs	r3, r4
/home/manga/Projects/Pokitto/zboy-0.60/PokittoLib/POKITTO_CORE/PokittoButtons.cpp:185 (discriminator 1)
     36a:	700c      	strb	r4, [r1, #0]
/home/manga/Projects/Pokitto/zboy-0.60/PokittoLib/POKITTO_CORE/PokittoButtons.cpp:186
    if (leftBtn()) buttons_state |= (1<<LEFTBIT);
     36c:	7814      	ldrb	r4, [r2, #0]
     36e:	2c00      	cmp	r4, #0
     370:	d003      	beq.n	37a <_ZN7Pokitto7Buttons11pollButtonsEv+0x32>
/home/manga/Projects/Pokitto/zboy-0.60/PokittoLib/POKITTO_CORE/PokittoButtons.cpp:186 (discriminator 1)
     372:	2404      	movs	r4, #4
     374:	4323      	orrs	r3, r4
     376:	b2db      	uxtb	r3, r3
     378:	700b      	strb	r3, [r1, #0]
/home/manga/Projects/Pokitto/zboy-0.60/PokittoLib/POKITTO_CORE/PokittoButtons.cpp:187
    if (rightBtn()) buttons_state |= (1<<RIGHTBIT);
     37a:	7894      	ldrb	r4, [r2, #2]
     37c:	2c00      	cmp	r4, #0
     37e:	d003      	beq.n	388 <_ZN7Pokitto7Buttons11pollButtonsEv+0x40>
/home/manga/Projects/Pokitto/zboy-0.60/PokittoLib/POKITTO_CORE/PokittoButtons.cpp:187 (discriminator 1)
     380:	2408      	movs	r4, #8
     382:	4323      	orrs	r3, r4
     384:	b2db      	uxtb	r3, r3
     386:	700b      	strb	r3, [r1, #0]
/home/manga/Projects/Pokitto/zboy-0.60/PokittoLib/POKITTO_CORE/PokittoButtons.cpp:188
    if (aBtn()) buttons_state |= (1<<ABIT);
     388:	7914      	ldrb	r4, [r2, #4]
     38a:	2c00      	cmp	r4, #0
     38c:	d003      	beq.n	396 <_ZN7Pokitto7Buttons11pollButtonsEv+0x4e>
/home/manga/Projects/Pokitto/zboy-0.60/PokittoLib/POKITTO_CORE/PokittoButtons.cpp:188 (discriminator 1)
     38e:	2410      	movs	r4, #16
     390:	4323      	orrs	r3, r4
     392:	b2db      	uxtb	r3, r3
     394:	700b      	strb	r3, [r1, #0]
/home/manga/Projects/Pokitto/zboy-0.60/PokittoLib/POKITTO_CORE/PokittoButtons.cpp:189
    if (bBtn()) buttons_state |= (1<<BBIT);
     396:	7954      	ldrb	r4, [r2, #5]
     398:	2c00      	cmp	r4, #0
     39a:	d003      	beq.n	3a4 <_ZN7Pokitto7Buttons11pollButtonsEv+0x5c>
/home/manga/Projects/Pokitto/zboy-0.60/PokittoLib/POKITTO_CORE/PokittoButtons.cpp:189 (discriminator 1)
     39c:	2420      	movs	r4, #32
     39e:	4323      	orrs	r3, r4
     3a0:	b2db      	uxtb	r3, r3
     3a2:	700b      	strb	r3, [r1, #0]
/home/manga/Projects/Pokitto/zboy-0.60/PokittoLib/POKITTO_CORE/PokittoButtons.cpp:190
    if (cBtn()) buttons_state |= (1<<CBIT);
     3a4:	7992      	ldrb	r2, [r2, #6]
     3a6:	2a00      	cmp	r2, #0
     3a8:	d003      	beq.n	3b2 <_ZN7Pokitto7Buttons11pollButtonsEv+0x6a>
/home/manga/Projects/Pokitto/zboy-0.60/PokittoLib/POKITTO_CORE/PokittoButtons.cpp:190 (discriminator 1)
     3aa:	2240      	movs	r2, #64	; 0x40
     3ac:	4313      	orrs	r3, r2
     3ae:	b2db      	uxtb	r3, r3
     3b0:	700b      	strb	r3, [r1, #0]
/home/manga/Projects/Pokitto/zboy-0.60/PokittoLib/POKITTO_CORE/PokittoButtons.cpp:191
    buttons_held = buttons_state & buttons_state_old; // only if both 1, end result is 1
     3b2:	0019      	movs	r1, r3
     3b4:	4a05      	ldr	r2, [pc, #20]	; (3cc <_ZN7Pokitto7Buttons11pollButtonsEv+0x84>)
     3b6:	4001      	ands	r1, r0
/home/manga/Projects/Pokitto/zboy-0.60/PokittoLib/POKITTO_CORE/PokittoButtons.cpp:192
    buttons_released = ~buttons_state & buttons_state_old; // if now zero, then 1 AND previous 1 = 1
     3b8:	4398      	bics	r0, r3
     3ba:	4b05      	ldr	r3, [pc, #20]	; (3d0 <_ZN7Pokitto7Buttons11pollButtonsEv+0x88>)
/home/manga/Projects/Pokitto/zboy-0.60/PokittoLib/POKITTO_CORE/PokittoButtons.cpp:191
    buttons_held = buttons_state & buttons_state_old; // only if both 1, end result is 1
     3bc:	7011      	strb	r1, [r2, #0]
/home/manga/Projects/Pokitto/zboy-0.60/PokittoLib/POKITTO_CORE/PokittoButtons.cpp:192
    buttons_released = ~buttons_state & buttons_state_old; // if now zero, then 1 AND previous 1 = 1
     3be:	7018      	strb	r0, [r3, #0]
/home/manga/Projects/Pokitto/zboy-0.60/PokittoLib/POKITTO_CORE/PokittoButtons.cpp:194
}
     3c0:	bd30      	pop	{r4, r5, pc}
     3c2:	46c0      	nop			; (mov r8, r8)
     3c4:	100001c7 	.word	0x100001c7
     3c8:	10001da8 	.word	0x10001da8
     3cc:	100001c6 	.word	0x100001c6
     3d0:	100001c8 	.word	0x100001c8

000003d4 <_ZN7Pokitto7Buttons4aBtnEv>:
_ZN7Pokitto7Buttons4aBtnEv():
/home/manga/Projects/Pokitto/zboy-0.60/PokittoLib/POKITTO_CORE/PokittoButtons.cpp:200
    return Pokitto::heldStates[BTN_A];
     3d4:	4b01      	ldr	r3, [pc, #4]	; (3dc <_ZN7Pokitto7Buttons4aBtnEv+0x8>)
     3d6:	7918      	ldrb	r0, [r3, #4]
/home/manga/Projects/Pokitto/zboy-0.60/PokittoLib/POKITTO_CORE/PokittoButtons.cpp:202
}
     3d8:	4770      	bx	lr
     3da:	46c0      	nop			; (mov r8, r8)
     3dc:	10001da8 	.word	0x10001da8

000003e0 <_ZN7Pokitto7Buttons5upBtnEv>:
_ZN7Pokitto7Buttons5upBtnEv():
/home/manga/Projects/Pokitto/zboy-0.60/PokittoLib/POKITTO_CORE/PokittoButtons.cpp:243
    return Pokitto::heldStates[BTN_UP];
     3e0:	4b01      	ldr	r3, [pc, #4]	; (3e8 <_ZN7Pokitto7Buttons5upBtnEv+0x8>)
     3e2:	7858      	ldrb	r0, [r3, #1]
/home/manga/Projects/Pokitto/zboy-0.60/PokittoLib/POKITTO_CORE/PokittoButtons.cpp:245
    #endif // POK_SIM
}
     3e4:	4770      	bx	lr
     3e6:	46c0      	nop			; (mov r8, r8)
     3e8:	10001da8 	.word	0x10001da8

000003ec <_ZN7Pokitto7Buttons7downBtnEv>:
_ZN7Pokitto7Buttons7downBtnEv():
/home/manga/Projects/Pokitto/zboy-0.60/PokittoLib/POKITTO_CORE/PokittoButtons.cpp:251

uint8_t Buttons::downBtn() {
    #ifdef POK_SIM
    return simulator.downBtn();
    #else
    return Pokitto::heldStates[BTN_DOWN];
     3ec:	4b01      	ldr	r3, [pc, #4]	; (3f4 <_ZN7Pokitto7Buttons7downBtnEv+0x8>)
     3ee:	78d8      	ldrb	r0, [r3, #3]
/home/manga/Projects/Pokitto/zboy-0.60/PokittoLib/POKITTO_CORE/PokittoButtons.cpp:253
    #endif // POK_SIM
}
     3f0:	4770      	bx	lr
     3f2:	46c0      	nop			; (mov r8, r8)
     3f4:	10001da8 	.word	0x10001da8

000003f8 <_GLOBAL__sub_I_pConsole>:
_ZN7Pokitto7ConsoleC4Ev():
/home/manga/Projects/Pokitto/zboy-0.60/PokittoLib/POKITTO_CORE/PokittoConsole.cpp:58
uint8_t Console::mode;
uint8_t Console::visible;
unsigned char* Console::font;

Console::Console() {
    conslast=consfirst=conspointer=conscounter=0;
     3f8:	2100      	movs	r1, #0
     3fa:	2300      	movs	r3, #0
     3fc:	4a09      	ldr	r2, [pc, #36]	; (424 <_GLOBAL__sub_I_pConsole+0x2c>)
     3fe:	8011      	strh	r1, [r2, #0]
     400:	4a09      	ldr	r2, [pc, #36]	; (428 <_GLOBAL__sub_I_pConsole+0x30>)
     402:	7013      	strb	r3, [r2, #0]
     404:	4a09      	ldr	r2, [pc, #36]	; (42c <_GLOBAL__sub_I_pConsole+0x34>)
     406:	7013      	strb	r3, [r2, #0]
     408:	4a09      	ldr	r2, [pc, #36]	; (430 <_GLOBAL__sub_I_pConsole+0x38>)
     40a:	7013      	strb	r3, [r2, #0]
/home/manga/Projects/Pokitto/zboy-0.60/PokittoLib/POKITTO_CORE/PokittoConsole.cpp:59
    color=0xFFFF;
     40c:	2201      	movs	r2, #1
     40e:	4b09      	ldr	r3, [pc, #36]	; (434 <_GLOBAL__sub_I_pConsole+0x3c>)
     410:	4252      	negs	r2, r2
     412:	801a      	strh	r2, [r3, #0]
/home/manga/Projects/Pokitto/zboy-0.60/PokittoLib/POKITTO_CORE/PokittoConsole.cpp:60
    font=(unsigned char*)fontMini;
     414:	4b08      	ldr	r3, [pc, #32]	; (438 <_GLOBAL__sub_I_pConsole+0x40>)
     416:	4a09      	ldr	r2, [pc, #36]	; (43c <_GLOBAL__sub_I_pConsole+0x44>)
     418:	601a      	str	r2, [r3, #0]
/home/manga/Projects/Pokitto/zboy-0.60/PokittoLib/POKITTO_CORE/PokittoConsole.cpp:62
    #if POK_CONSOLE_VISIBLE_AT_STARTUP > 0
        mode=CONS_OVERLAY|CONS_VISIBLE;
     41a:	2209      	movs	r2, #9
     41c:	4b08      	ldr	r3, [pc, #32]	; (440 <_GLOBAL__sub_I_pConsole+0x48>)
     41e:	701a      	strb	r2, [r3, #0]
_GLOBAL__sub_I_pConsole():
/home/manga/Projects/Pokitto/zboy-0.60/PokittoLib/POKITTO_CORE/PokittoConsole.cpp:309
    _display->font = oldfont;
    _display->fontSize = oldsize;
    _display->cursorX = oldx;
    _display->cursorY = oldy;
    _display->directcolor = oldcolor;
}
     420:	4770      	bx	lr
     422:	46c0      	nop			; (mov r8, r8)
     424:	100001d4 	.word	0x100001d4
     428:	100001d6 	.word	0x100001d6
     42c:	100001e1 	.word	0x100001e1
     430:	100001e0 	.word	0x100001e0
     434:	100001de 	.word	0x100001de
     438:	100001d8 	.word	0x100001d8
     43c:	0000f854 	.word	0x0000f854
     440:	100001dc 	.word	0x100001dc

00000444 <_Z17start_applicationm>:
_Z17start_applicationm():
/home/manga/Projects/Pokitto/zboy-0.60/PokittoLib/POKITTO_CORE/PokittoCore.cpp:1257
			//erase character
			if (buttons.pressed(BTN_B)) {
				activeChar--;
				sound.playCancel();
				if (activeChar >= 0)
				text[activeChar] = 0;
     444:	b530      	push	{r4, r5, lr}
     446:	b083      	sub	sp, #12
__disable_irq():
/home/manga/Projects/Pokitto/zboy-0.60/PokittoLib/POKITTO_CORE/PokittoCore.cpp:1257
     448:	b672      	cpsid	i
_Z17start_applicationm():
/home/manga/Projects/Pokitto/zboy-0.60/PokittoLib/POKITTO_CORE/PokittoCore.cpp:1257
     44a:	2100      	movs	r1, #0
     44c:	2204      	movs	r2, #4
/home/manga/Projects/Pokitto/zboy-0.60/PokittoLib/POKITTO_CORE/PokittoCore.cpp:1231
			if (activeY < 0) activeY = KEYBOARD_H - 1;
     44e:	4b23      	ldr	r3, [pc, #140]	; (4dc <_Z17start_applicationm+0x98>)
     450:	2480      	movs	r4, #128	; 0x80
/home/manga/Projects/Pokitto/zboy-0.60/PokittoLib/POKITTO_CORE/PokittoCore.cpp:1259
				else
				activeChar = 0;
     452:	6059      	str	r1, [r3, #4]
     454:	6119      	str	r1, [r3, #16]
/home/manga/Projects/Pokitto/zboy-0.60/PokittoLib/POKITTO_CORE/PokittoCore.cpp:1319
			display.cursorY = LCDHEIGHT-display.fontHeight;
			display.setColor(BLACK);
			display.print(text);
			//blinking cursor
			if (((frameCount % 8) < 4) && (activeChar < (length-1)))
			display.drawChar(display.fontWidth * activeChar, LCDHEIGHT-display.fontHeight, '_',1);
     456:	4b22      	ldr	r3, [pc, #136]	; (4e0 <_Z17start_applicationm+0x9c>)
     458:	00e4      	lsls	r4, r4, #3
     45a:	601a      	str	r2, [r3, #0]
     45c:	238e      	movs	r3, #142	; 0x8e
     45e:	4a21      	ldr	r2, [pc, #132]	; (4e4 <_Z17start_applicationm+0xa0>)
     460:	009b      	lsls	r3, r3, #2
     462:	58d5      	ldr	r5, [r2, r3]
     464:	432c      	orrs	r4, r5
     466:	50d4      	str	r4, [r2, r3]
     468:	2480      	movs	r4, #128	; 0x80
     46a:	58d5      	ldr	r5, [r2, r3]
     46c:	0064      	lsls	r4, r4, #1
     46e:	432c      	orrs	r4, r5
     470:	50d4      	str	r4, [r2, r3]
     472:	2301      	movs	r3, #1
     474:	6753      	str	r3, [r2, #116]	; 0x74
     476:	6751      	str	r1, [r2, #116]	; 0x74
     478:	3101      	adds	r1, #1
     47a:	6f53      	ldr	r3, [r2, #116]	; 0x74
     47c:	400b      	ands	r3, r1
     47e:	d1fc      	bne.n	47a <_Z17start_applicationm+0x36>
     480:	6713      	str	r3, [r2, #112]	; 0x70
     482:	6751      	str	r1, [r2, #116]	; 0x74
     484:	2101      	movs	r1, #1
     486:	6753      	str	r3, [r2, #116]	; 0x74
     488:	4a16      	ldr	r2, [pc, #88]	; (4e4 <_Z17start_applicationm+0xa0>)
     48a:	6f53      	ldr	r3, [r2, #116]	; 0x74
     48c:	400b      	ands	r3, r1
     48e:	d1fc      	bne.n	48a <_Z17start_applicationm+0x46>
/home/manga/Projects/Pokitto/zboy-0.60/PokittoLib/POKITTO_CORE/PokittoCore.cpp:100
tmp = (LPC_SYSCON->PDRUNCFG & 0x000025FFL);
     490:	248e      	movs	r4, #142	; 0x8e
/home/manga/Projects/Pokitto/zboy-0.60/PokittoLib/POKITTO_CORE/PokittoCore.cpp:90
LPC_SYSCON->SYSPLLCLKUEN = 0;
     492:	6453      	str	r3, [r2, #68]	; 0x44
/home/manga/Projects/Pokitto/zboy-0.60/PokittoLib/POKITTO_CORE/PokittoCore.cpp:91
while (LPC_SYSCON->SYSPLLCLKUEN & 0x00);
     494:	6c51      	ldr	r1, [r2, #68]	; 0x44
/home/manga/Projects/Pokitto/zboy-0.60/PokittoLib/POKITTO_CORE/PokittoCore.cpp:100
tmp = (LPC_SYSCON->PDRUNCFG & 0x000025FFL);
     496:	00a4      	lsls	r4, r4, #2
/home/manga/Projects/Pokitto/zboy-0.60/PokittoLib/POKITTO_CORE/PokittoCore.cpp:92
LPC_SYSCON->SYSPLLCTRL = 0;
     498:	6093      	str	r3, [r2, #8]
/home/manga/Projects/Pokitto/zboy-0.60/PokittoLib/POKITTO_CORE/PokittoCore.cpp:95
LPC_SYSCON->MAINCLKSEL = 0;
     49a:	6713      	str	r3, [r2, #112]	; 0x70
/home/manga/Projects/Pokitto/zboy-0.60/PokittoLib/POKITTO_CORE/PokittoCore.cpp:96
LPC_SYSCON->PRESETCTRL = 0; //disable all peripherals
     49c:	6053      	str	r3, [r2, #4]
/home/manga/Projects/Pokitto/zboy-0.60/PokittoLib/POKITTO_CORE/PokittoCore.cpp:100
tmp = (LPC_SYSCON->PDRUNCFG & 0x000025FFL);
     49e:	5911      	ldr	r1, [r2, r4]
     4a0:	4d11      	ldr	r5, [pc, #68]	; (4e8 <_Z17start_applicationm+0xa4>)
     4a2:	4029      	ands	r1, r5
/home/manga/Projects/Pokitto/zboy-0.60/PokittoLib/POKITTO_CORE/PokittoCore.cpp:101
tmp |= ((1<<7) & 0x000025FFL);
     4a4:	2580      	movs	r5, #128	; 0x80
/home/manga/Projects/Pokitto/zboy-0.60/PokittoLib/POKITTO_CORE/PokittoCore.cpp:100
tmp = (LPC_SYSCON->PDRUNCFG & 0x000025FFL);
     4a6:	9101      	str	r1, [sp, #4]
/home/manga/Projects/Pokitto/zboy-0.60/PokittoLib/POKITTO_CORE/PokittoCore.cpp:101
tmp |= ((1<<7) & 0x000025FFL);
     4a8:	9901      	ldr	r1, [sp, #4]
     4aa:	4329      	orrs	r1, r5
     4ac:	9101      	str	r1, [sp, #4]
/home/manga/Projects/Pokitto/zboy-0.60/PokittoLib/POKITTO_CORE/PokittoCore.cpp:102
LPC_SYSCON->PDRUNCFG = (tmp | 0x0000C800L); /* Power-down SYSPLL          */
     4ae:	21c8      	movs	r1, #200	; 0xc8
     4b0:	9d01      	ldr	r5, [sp, #4]
     4b2:	0209      	lsls	r1, r1, #8
     4b4:	4329      	orrs	r1, r5
     4b6:	5111      	str	r1, [r2, r4]
/home/manga/Projects/Pokitto/zboy-0.60/PokittoLib/POKITTO_CORE/PokittoCore.cpp:107
LPC_GPIO_PORT->PIN[0] = 0;
     4b8:	22a0      	movs	r2, #160	; 0xa0
     4ba:	2184      	movs	r1, #132	; 0x84
     4bc:	0612      	lsls	r2, r2, #24
     4be:	0189      	lsls	r1, r1, #6
     4c0:	5053      	str	r3, [r2, r1]
/home/manga/Projects/Pokitto/zboy-0.60/PokittoLib/POKITTO_CORE/PokittoCore.cpp:108
LPC_GPIO_PORT->PIN[1] = 0;
     4c2:	490a      	ldr	r1, [pc, #40]	; (4ec <_Z17start_applicationm+0xa8>)
     4c4:	5053      	str	r3, [r2, r1]
/home/manga/Projects/Pokitto/zboy-0.60/PokittoLib/POKITTO_CORE/PokittoCore.cpp:109
LPC_GPIO_PORT->PIN[2] = 0;
     4c6:	490a      	ldr	r1, [pc, #40]	; (4f0 <_Z17start_applicationm+0xac>)
     4c8:	5053      	str	r3, [r2, r1]
/home/manga/Projects/Pokitto/zboy-0.60/PokittoLib/POKITTO_CORE/PokittoCore.cpp:111
SCB->VTOR = app_link_location;//APPL_ADDRESS; /* Change vector table address */
     4ca:	4b0a      	ldr	r3, [pc, #40]	; (4f4 <_Z17start_applicationm+0xb0>)
     4cc:	6098      	str	r0, [r3, #8]
/home/manga/Projects/Pokitto/zboy-0.60/PokittoLib/POKITTO_CORE/PokittoCore.cpp:113
asm(" mov r0, %[address]"::[address] "r" (app_link_location));
     4ce:	1c00      	adds	r0, r0, #0
/home/manga/Projects/Pokitto/zboy-0.60/PokittoLib/POKITTO_CORE/PokittoCore.cpp:114
asm(" ldr r1, [r0,#0]"); // get the stack pointer value from the program's reset vector
     4d0:	6801      	ldr	r1, [r0, #0]
/home/manga/Projects/Pokitto/zboy-0.60/PokittoLib/POKITTO_CORE/PokittoCore.cpp:115
asm(" mov sp, r1");      // copy the value to the stack pointer
     4d2:	468d      	mov	sp, r1
/home/manga/Projects/Pokitto/zboy-0.60/PokittoLib/POKITTO_CORE/PokittoCore.cpp:116
asm(" ldr r0, [r0,#4]"); // get the program counter value from the program's reset vector
     4d4:	6840      	ldr	r0, [r0, #4]
/home/manga/Projects/Pokitto/zboy-0.60/PokittoLib/POKITTO_CORE/PokittoCore.cpp:117
asm(" blx r0");          // jump to the' start address
     4d6:	4780      	blx	r0
/home/manga/Projects/Pokitto/zboy-0.60/PokittoLib/POKITTO_CORE/PokittoCore.cpp:123
}
     4d8:	b003      	add	sp, #12
     4da:	bd30      	pop	{r4, r5, pc}
     4dc:	a0004000 	.word	0xa0004000
     4e0:	e000e010 	.word	0xe000e010
     4e4:	40048000 	.word	0x40048000
     4e8:	000025ff 	.word	0x000025ff
     4ec:	00002104 	.word	0x00002104
     4f0:	00002108 	.word	0x00002108
     4f4:	e000ed00 	.word	0xe000ed00

000004f8 <_ZN7Pokitto4CoreC1Ev>:
_ZN7Pokitto4CoreC2Ev():
/home/manga/Projects/Pokitto/zboy-0.60/PokittoLib/POKITTO_CORE/PokittoCore.cpp:174
}
     4f8:	4770      	bx	lr
_ZN7Pokitto4CoreC1Ev():
     4fa:	46c0      	nop			; (mov r8, r8)

000004fc <_ZN7Pokitto4Core12updateLoaderEmm>:
_ZN7Pokitto4Core12updateLoaderEmm():
/home/manga/Projects/Pokitto/zboy-0.60/PokittoLib/POKITTO_CORE/PokittoCore.cpp:177
int Core::updateLoader (uint32_t version, uint32_t jumpaddress) {
     4fc:	b5f0      	push	{r4, r5, r6, r7, lr}
     4fe:	46c6      	mov	lr, r8
     500:	b500      	push	{lr}
/home/manga/Projects/Pokitto/zboy-0.60/PokittoLib/POKITTO_CORE/PokittoCore.cpp:187
    if (fsize>0x40000-jumpaddress) fsize = 0x40000-jumpaddress; // shouldn't happen!!
     502:	2580      	movs	r5, #128	; 0x80
/home/manga/Projects/Pokitto/zboy-0.60/PokittoLib/POKITTO_CORE/PokittoCore.cpp:177
int Core::updateLoader (uint32_t version, uint32_t jumpaddress) {
     504:	b0c0      	sub	sp, #256	; 0x100
     506:	000e      	movs	r6, r1
/home/manga/Projects/Pokitto/zboy-0.60/PokittoLib/POKITTO_CORE/PokittoCore.cpp:185
    fileEnd(); //
     508:	f000 fb34 	bl	b74 <_Z7fileEndv>
/home/manga/Projects/Pokitto/zboy-0.60/PokittoLib/POKITTO_CORE/PokittoCore.cpp:186
    fsize = fileGetPosition();
     50c:	f000 fb3e 	bl	b8c <_Z15fileGetPositionv>
/home/manga/Projects/Pokitto/zboy-0.60/PokittoLib/POKITTO_CORE/PokittoCore.cpp:187
    if (fsize>0x40000-jumpaddress) fsize = 0x40000-jumpaddress; // shouldn't happen!!
     510:	02ed      	lsls	r5, r5, #11
     512:	1bad      	subs	r5, r5, r6
     514:	4285      	cmp	r5, r0
     516:	d900      	bls.n	51a <_ZN7Pokitto4Core12updateLoaderEmm+0x1e>
     518:	0005      	movs	r5, r0
/home/manga/Projects/Pokitto/zboy-0.60/PokittoLib/POKITTO_CORE/PokittoCore.cpp:188
    fileRewind();
     51a:	f000 fb21 	bl	b60 <_Z10fileRewindv>
/home/manga/Projects/Pokitto/zboy-0.60/PokittoLib/POKITTO_CORE/PokittoCore.cpp:189
    display.println("PLEASE WAIT");
     51e:	4818      	ldr	r0, [pc, #96]	; (580 <_ZN7Pokitto4Core12updateLoaderEmm+0x84>)
     520:	f001 fd72 	bl	2008 <_ZN7Pokitto7Display7printlnEPKc>
/home/manga/Projects/Pokitto/zboy-0.60/PokittoLib/POKITTO_CORE/PokittoCore.cpp:194
        if (counter >= fsize) {
     524:	2d00      	cmp	r5, #0
     526:	d024      	beq.n	572 <_ZN7Pokitto4Core12updateLoaderEmm+0x76>
/home/manga/Projects/Pokitto/zboy-0.60/PokittoLib/POKITTO_CORE/PokittoCore.cpp:198
        if (fileReadBytes(&data[0],0x100)<0x100) {
     528:	2380      	movs	r3, #128	; 0x80
     52a:	005b      	lsls	r3, r3, #1
/home/manga/Projects/Pokitto/zboy-0.60/PokittoLib/POKITTO_CORE/PokittoCore.cpp:179
    uint32_t counter=0;
     52c:	2400      	movs	r4, #0
/home/manga/Projects/Pokitto/zboy-0.60/PokittoLib/POKITTO_CORE/PokittoCore.cpp:198
        if (fileReadBytes(&data[0],0x100)<0x100) {
     52e:	4698      	mov	r8, r3
/home/manga/Projects/Pokitto/zboy-0.60/PokittoLib/POKITTO_CORE/PokittoCore.cpp:209
            display.print(".");
     530:	4f14      	ldr	r7, [pc, #80]	; (584 <_ZN7Pokitto4Core12updateLoaderEmm+0x88>)
     532:	e006      	b.n	542 <_ZN7Pokitto4Core12updateLoaderEmm+0x46>
/home/manga/Projects/Pokitto/zboy-0.60/PokittoLib/POKITTO_CORE/PokittoCore.cpp:208
            counter += 0x100;
     534:	3401      	adds	r4, #1
     536:	34ff      	adds	r4, #255	; 0xff
/home/manga/Projects/Pokitto/zboy-0.60/PokittoLib/POKITTO_CORE/PokittoCore.cpp:209
            display.print(".");
     538:	0038      	movs	r0, r7
     53a:	f001 fc3f 	bl	1dbc <_ZN7Pokitto7Display5printEPKc>
/home/manga/Projects/Pokitto/zboy-0.60/PokittoLib/POKITTO_CORE/PokittoCore.cpp:194
        if (counter >= fsize) {
     53e:	42ac      	cmp	r4, r5
     540:	d217      	bcs.n	572 <_ZN7Pokitto4Core12updateLoaderEmm+0x76>
/home/manga/Projects/Pokitto/zboy-0.60/PokittoLib/POKITTO_CORE/PokittoCore.cpp:198
        if (fileReadBytes(&data[0],0x100)<0x100) {
     542:	2180      	movs	r1, #128	; 0x80
     544:	4668      	mov	r0, sp
     546:	0049      	lsls	r1, r1, #1
     548:	f000 faec 	bl	b24 <_Z13fileReadBytesPht>
     54c:	28ff      	cmp	r0, #255	; 0xff
     54e:	d802      	bhi.n	556 <_ZN7Pokitto4Core12updateLoaderEmm+0x5a>
/home/manga/Projects/Pokitto/zboy-0.60/PokittoLib/POKITTO_CORE/PokittoCore.cpp:199
                if (fsize-counter>0x100) {
     550:	1b2b      	subs	r3, r5, r4
     552:	4543      	cmp	r3, r8
     554:	d80f      	bhi.n	576 <_ZN7Pokitto4Core12updateLoaderEmm+0x7a>
/home/manga/Projects/Pokitto/zboy-0.60/PokittoLib/POKITTO_CORE/PokittoCore.cpp:204
        if (CopyPageToFlash(jumpaddress+counter,data)) {
     556:	1930      	adds	r0, r6, r4
     558:	4669      	mov	r1, sp
     55a:	f003 fa6d 	bl	3a38 <_Z15CopyPageToFlashmPh>
     55e:	2800      	cmp	r0, #0
     560:	d0e8      	beq.n	534 <_ZN7Pokitto4Core12updateLoaderEmm+0x38>
/home/manga/Projects/Pokitto/zboy-0.60/PokittoLib/POKITTO_CORE/PokittoCore.cpp:205
                    display.println("FLASH WRITE ERROR");
     562:	4809      	ldr	r0, [pc, #36]	; (588 <_ZN7Pokitto4Core12updateLoaderEmm+0x8c>)
     564:	f001 fd50 	bl	2008 <_ZN7Pokitto7Display7printlnEPKc>
/home/manga/Projects/Pokitto/zboy-0.60/PokittoLib/POKITTO_CORE/PokittoCore.cpp:206
                    return 1;
     568:	2001      	movs	r0, #1
/home/manga/Projects/Pokitto/zboy-0.60/PokittoLib/POKITTO_CORE/PokittoCore.cpp:214
}
     56a:	b040      	add	sp, #256	; 0x100
     56c:	bc04      	pop	{r2}
     56e:	4690      	mov	r8, r2
     570:	bdf0      	pop	{r4, r5, r6, r7, pc}
/home/manga/Projects/Pokitto/zboy-0.60/PokittoLib/POKITTO_CORE/PokittoCore.cpp:213
    return 0; //success
     572:	2000      	movs	r0, #0
     574:	e7f9      	b.n	56a <_ZN7Pokitto4Core12updateLoaderEmm+0x6e>
/home/manga/Projects/Pokitto/zboy-0.60/PokittoLib/POKITTO_CORE/PokittoCore.cpp:200
                        display.println("ERROR READING LOA.DER FILE");
     576:	4805      	ldr	r0, [pc, #20]	; (58c <_ZN7Pokitto4Core12updateLoaderEmm+0x90>)
     578:	f001 fd46 	bl	2008 <_ZN7Pokitto7Display7printlnEPKc>
/home/manga/Projects/Pokitto/zboy-0.60/PokittoLib/POKITTO_CORE/PokittoCore.cpp:201
                        return 1; // 1 means error
     57c:	2001      	movs	r0, #1
     57e:	e7f4      	b.n	56a <_ZN7Pokitto4Core12updateLoaderEmm+0x6e>
     580:	0000fa80 	.word	0x0000fa80
     584:	0000fa18 	.word	0x0000fa18
     588:	0000faa8 	.word	0x0000faa8
     58c:	0000fa8c 	.word	0x0000fa8c

00000590 <_ZN7Pokitto4Core12jumpToLoaderEv>:
_ZN7Pokitto4Core12jumpToLoaderEv():
/home/manga/Projects/Pokitto/zboy-0.60/PokittoLib/POKITTO_CORE/PokittoCore.cpp:260
void Core::jumpToLoader() {
     590:	b5f0      	push	{r4, r5, r6, r7, lr}
/home/manga/Projects/Pokitto/zboy-0.60/PokittoLib/POKITTO_CORE/PokittoCore.cpp:264
    display.fontSize=1;
     592:	2201      	movs	r2, #1
/home/manga/Projects/Pokitto/zboy-0.60/PokittoLib/POKITTO_CORE/PokittoCore.cpp:260
void Core::jumpToLoader() {
     594:	46c6      	mov	lr, r8
/home/manga/Projects/Pokitto/zboy-0.60/PokittoLib/POKITTO_CORE/PokittoCore.cpp:265
    display.directbgcolor=COLOR_BLACK;
     596:	2500      	movs	r5, #0
/home/manga/Projects/Pokitto/zboy-0.60/PokittoLib/POKITTO_CORE/PokittoCore.cpp:264
    display.fontSize=1;
     598:	4b59      	ldr	r3, [pc, #356]	; (700 <_ZN7Pokitto4Core12jumpToLoaderEv+0x170>)
/home/manga/Projects/Pokitto/zboy-0.60/PokittoLib/POKITTO_CORE/PokittoCore.cpp:260
void Core::jumpToLoader() {
     59a:	b500      	push	{lr}
/home/manga/Projects/Pokitto/zboy-0.60/PokittoLib/POKITTO_CORE/PokittoCore.cpp:264
    display.fontSize=1;
     59c:	701a      	strb	r2, [r3, #0]
/home/manga/Projects/Pokitto/zboy-0.60/PokittoLib/POKITTO_CORE/PokittoCore.cpp:265
    display.directbgcolor=COLOR_BLACK;
     59e:	4b59      	ldr	r3, [pc, #356]	; (704 <_ZN7Pokitto4Core12jumpToLoaderEv+0x174>)
/home/manga/Projects/Pokitto/zboy-0.60/PokittoLib/POKITTO_CORE/PokittoCore.cpp:266
    display.directcolor=COLOR_GREEN;
     5a0:	4c59      	ldr	r4, [pc, #356]	; (708 <_ZN7Pokitto4Core12jumpToLoaderEv+0x178>)
/home/manga/Projects/Pokitto/zboy-0.60/PokittoLib/POKITTO_CORE/PokittoCore.cpp:265
    display.directbgcolor=COLOR_BLACK;
     5a2:	801d      	strh	r5, [r3, #0]
/home/manga/Projects/Pokitto/zboy-0.60/PokittoLib/POKITTO_CORE/PokittoCore.cpp:266
    display.directcolor=COLOR_GREEN;
     5a4:	23fc      	movs	r3, #252	; 0xfc
/home/manga/Projects/Pokitto/zboy-0.60/PokittoLib/POKITTO_CORE/PokittoCore.cpp:260
void Core::jumpToLoader() {
     5a6:	b082      	sub	sp, #8
/home/manga/Projects/Pokitto/zboy-0.60/PokittoLib/POKITTO_CORE/PokittoCore.cpp:266
    display.directcolor=COLOR_GREEN;
     5a8:	00db      	lsls	r3, r3, #3
     5aa:	8023      	strh	r3, [r4, #0]
/home/manga/Projects/Pokitto/zboy-0.60/PokittoLib/POKITTO_CORE/PokittoCore.cpp:267
    display.clearLCD();
     5ac:	f000 fb5e 	bl	c6c <_ZN7Pokitto7Display8clearLCDEv>
/home/manga/Projects/Pokitto/zboy-0.60/PokittoLib/POKITTO_CORE/PokittoCore.cpp:268
    display.setCursor(0,0);
     5b0:	2100      	movs	r1, #0
     5b2:	2000      	movs	r0, #0
     5b4:	f000 fb70 	bl	c98 <_ZN7Pokitto7Display9setCursorEss>
/home/manga/Projects/Pokitto/zboy-0.60/PokittoLib/POKITTO_CORE/PokittoCore.cpp:269
    display.enableDirectPrinting(true);
     5b8:	2001      	movs	r0, #1
     5ba:	f001 fb29 	bl	1c10 <_ZN7Pokitto7Display20enableDirectPrintingEh>
/home/manga/Projects/Pokitto/zboy-0.60/PokittoLib/POKITTO_CORE/PokittoCore.cpp:274
    uint32_t bootversion=0, sdversion=0, sdjump=0;
     5be:	9500      	str	r5, [sp, #0]
     5c0:	9501      	str	r5, [sp, #4]
/home/manga/Projects/Pokitto/zboy-0.60/PokittoLib/POKITTO_CORE/PokittoCore.cpp:278
    pokInitSD();
     5c2:	f018 fceb 	bl	18f9c <_Z9pokInitSDv>
/home/manga/Projects/Pokitto/zboy-0.60/PokittoLib/POKITTO_CORE/PokittoCore.cpp:279
    if (fileOpen("LOA.DER", FILE_MODE_BINARY)==0) {
     5c6:	2104      	movs	r1, #4
     5c8:	4850      	ldr	r0, [pc, #320]	; (70c <_ZN7Pokitto4Core12jumpToLoaderEv+0x17c>)
     5ca:	f000 fa81 	bl	ad0 <_Z8fileOpenPcc>
     5ce:	2800      	cmp	r0, #0
     5d0:	d068      	beq.n	6a4 <_ZN7Pokitto4Core12jumpToLoaderEv+0x114>
/home/manga/Projects/Pokitto/zboy-0.60/PokittoLib/POKITTO_CORE/PokittoCore.cpp:313
        display.print("LOADER V.");
     5d2:	4b4f      	ldr	r3, [pc, #316]	; (710 <_ZN7Pokitto4Core12jumpToLoaderEv+0x180>)
/home/manga/Projects/Pokitto/zboy-0.60/PokittoLib/POKITTO_CORE/PokittoCore.cpp:295
    if (*bootinfo != 0xB007AB1E) bootinfo = (uint32_t*)0x3FF04; //allow couple of alternative locations
     5d4:	4f4f      	ldr	r7, [pc, #316]	; (714 <_ZN7Pokitto4Core12jumpToLoaderEv+0x184>)
/home/manga/Projects/Pokitto/zboy-0.60/PokittoLib/POKITTO_CORE/PokittoCore.cpp:313
        display.print("LOADER V.");
     5d6:	4698      	mov	r8, r3
/home/manga/Projects/Pokitto/zboy-0.60/PokittoLib/POKITTO_CORE/PokittoCore.cpp:295
    if (*bootinfo != 0xB007AB1E) bootinfo = (uint32_t*)0x3FF04; //allow couple of alternative locations
     5d8:	4a4f      	ldr	r2, [pc, #316]	; (718 <_ZN7Pokitto4Core12jumpToLoaderEv+0x188>)
     5da:	683b      	ldr	r3, [r7, #0]
/home/manga/Projects/Pokitto/zboy-0.60/PokittoLib/POKITTO_CORE/PokittoCore.cpp:301
        display.println("NO LOADER INSTALLED");
     5dc:	4e4f      	ldr	r6, [pc, #316]	; (71c <_ZN7Pokitto4Core12jumpToLoaderEv+0x18c>)
/home/manga/Projects/Pokitto/zboy-0.60/PokittoLib/POKITTO_CORE/PokittoCore.cpp:326
            display.print("NEW LOADER ON SD V.");
     5de:	4d50      	ldr	r5, [pc, #320]	; (720 <_ZN7Pokitto4Core12jumpToLoaderEv+0x190>)
/home/manga/Projects/Pokitto/zboy-0.60/PokittoLib/POKITTO_CORE/PokittoCore.cpp:295
    if (*bootinfo != 0xB007AB1E) bootinfo = (uint32_t*)0x3FF04; //allow couple of alternative locations
     5e0:	4293      	cmp	r3, r2
     5e2:	d041      	beq.n	668 <_ZN7Pokitto4Core12jumpToLoaderEv+0xd8>
/home/manga/Projects/Pokitto/zboy-0.60/PokittoLib/POKITTO_CORE/PokittoCore.cpp:296
    if (*bootinfo != 0xB007AB1E) bootinfo = (uint32_t*)0x3FE04; //allow couple of alternative locations
     5e4:	4f4f      	ldr	r7, [pc, #316]	; (724 <_ZN7Pokitto4Core12jumpToLoaderEv+0x194>)
     5e6:	683b      	ldr	r3, [r7, #0]
     5e8:	4293      	cmp	r3, r2
     5ea:	d03d      	beq.n	668 <_ZN7Pokitto4Core12jumpToLoaderEv+0xd8>
/home/manga/Projects/Pokitto/zboy-0.60/PokittoLib/POKITTO_CORE/PokittoCore.cpp:297
    if (*bootinfo != 0xB007AB1E) bootinfo = (uint32_t*)0x3F004; //for futureproofing
     5ec:	4f4e      	ldr	r7, [pc, #312]	; (728 <_ZN7Pokitto4Core12jumpToLoaderEv+0x198>)
     5ee:	683b      	ldr	r3, [r7, #0]
     5f0:	4293      	cmp	r3, r2
     5f2:	d039      	beq.n	668 <_ZN7Pokitto4Core12jumpToLoaderEv+0xd8>
/home/manga/Projects/Pokitto/zboy-0.60/PokittoLib/POKITTO_CORE/PokittoCore.cpp:298
    if (*bootinfo != 0xB007AB1E) {
     5f4:	4f4d      	ldr	r7, [pc, #308]	; (72c <_ZN7Pokitto4Core12jumpToLoaderEv+0x19c>)
     5f6:	683b      	ldr	r3, [r7, #0]
     5f8:	4293      	cmp	r3, r2
     5fa:	d035      	beq.n	668 <_ZN7Pokitto4Core12jumpToLoaderEv+0xd8>
/home/manga/Projects/Pokitto/zboy-0.60/PokittoLib/POKITTO_CORE/PokittoCore.cpp:300
        display.directcolor=COLOR_YELLOW;
     5fc:	2320      	movs	r3, #32
/home/manga/Projects/Pokitto/zboy-0.60/PokittoLib/POKITTO_CORE/PokittoCore.cpp:301
        display.println("NO LOADER INSTALLED");
     5fe:	0030      	movs	r0, r6
/home/manga/Projects/Pokitto/zboy-0.60/PokittoLib/POKITTO_CORE/PokittoCore.cpp:300
        display.directcolor=COLOR_YELLOW;
     600:	425b      	negs	r3, r3
     602:	8023      	strh	r3, [r4, #0]
/home/manga/Projects/Pokitto/zboy-0.60/PokittoLib/POKITTO_CORE/PokittoCore.cpp:301
        display.println("NO LOADER INSTALLED");
     604:	f001 fd00 	bl	2008 <_ZN7Pokitto7Display7printlnEPKc>
/home/manga/Projects/Pokitto/zboy-0.60/PokittoLib/POKITTO_CORE/PokittoCore.cpp:302
        if (sdversion==0 || sdjump < 0x38000) {
     608:	9b00      	ldr	r3, [sp, #0]
     60a:	2b00      	cmp	r3, #0
     60c:	d05b      	beq.n	6c6 <_ZN7Pokitto4Core12jumpToLoaderEv+0x136>
/home/manga/Projects/Pokitto/zboy-0.60/PokittoLib/POKITTO_CORE/PokittoCore.cpp:302 (discriminator 1)
     60e:	4b48      	ldr	r3, [pc, #288]	; (730 <_ZN7Pokitto4Core12jumpToLoaderEv+0x1a0>)
     610:	9a01      	ldr	r2, [sp, #4]
     612:	429a      	cmp	r2, r3
     614:	d957      	bls.n	6c6 <_ZN7Pokitto4Core12jumpToLoaderEv+0x136>
/home/manga/Projects/Pokitto/zboy-0.60/PokittoLib/POKITTO_CORE/PokittoCore.cpp:325
            display.directcolor=COLOR_MAGENTA;
     616:	4b47      	ldr	r3, [pc, #284]	; (734 <_ZN7Pokitto4Core12jumpToLoaderEv+0x1a4>)
/home/manga/Projects/Pokitto/zboy-0.60/PokittoLib/POKITTO_CORE/PokittoCore.cpp:326
            display.print("NEW LOADER ON SD V.");
     618:	0028      	movs	r0, r5
/home/manga/Projects/Pokitto/zboy-0.60/PokittoLib/POKITTO_CORE/PokittoCore.cpp:325
            display.directcolor=COLOR_MAGENTA;
     61a:	8023      	strh	r3, [r4, #0]
/home/manga/Projects/Pokitto/zboy-0.60/PokittoLib/POKITTO_CORE/PokittoCore.cpp:326
            display.print("NEW LOADER ON SD V.");
     61c:	f001 fbce 	bl	1dbc <_ZN7Pokitto7Display5printEPKc>
/home/manga/Projects/Pokitto/zboy-0.60/PokittoLib/POKITTO_CORE/PokittoCore.cpp:327
            display.directcolor=COLOR_WHITE;
     620:	2301      	movs	r3, #1
/home/manga/Projects/Pokitto/zboy-0.60/PokittoLib/POKITTO_CORE/PokittoCore.cpp:328
            display.println(sdversion);
     622:	9800      	ldr	r0, [sp, #0]
/home/manga/Projects/Pokitto/zboy-0.60/PokittoLib/POKITTO_CORE/PokittoCore.cpp:327
            display.directcolor=COLOR_WHITE;
     624:	425b      	negs	r3, r3
/home/manga/Projects/Pokitto/zboy-0.60/PokittoLib/POKITTO_CORE/PokittoCore.cpp:328
            display.println(sdversion);
     626:	210a      	movs	r1, #10
/home/manga/Projects/Pokitto/zboy-0.60/PokittoLib/POKITTO_CORE/PokittoCore.cpp:327
            display.directcolor=COLOR_WHITE;
     628:	8023      	strh	r3, [r4, #0]
/home/manga/Projects/Pokitto/zboy-0.60/PokittoLib/POKITTO_CORE/PokittoCore.cpp:328
            display.println(sdversion);
     62a:	f001 fdc3 	bl	21b4 <_ZN7Pokitto7Display7printlnEmi>
/home/manga/Projects/Pokitto/zboy-0.60/PokittoLib/POKITTO_CORE/PokittoCore.cpp:329
            display.directcolor=COLOR_GREEN;
     62e:	23fc      	movs	r3, #252	; 0xfc
/home/manga/Projects/Pokitto/zboy-0.60/PokittoLib/POKITTO_CORE/PokittoCore.cpp:330
            display.println("UPDATE LOADER?\n(UP=YES, DOWN=CANCEL)");
     630:	4841      	ldr	r0, [pc, #260]	; (738 <_ZN7Pokitto4Core12jumpToLoaderEv+0x1a8>)
/home/manga/Projects/Pokitto/zboy-0.60/PokittoLib/POKITTO_CORE/PokittoCore.cpp:329
            display.directcolor=COLOR_GREEN;
     632:	00db      	lsls	r3, r3, #3
     634:	8023      	strh	r3, [r4, #0]
/home/manga/Projects/Pokitto/zboy-0.60/PokittoLib/POKITTO_CORE/PokittoCore.cpp:330
            display.println("UPDATE LOADER?\n(UP=YES, DOWN=CANCEL)");
     636:	f001 fce7 	bl	2008 <_ZN7Pokitto7Display7printlnEPKc>
     63a:	e003      	b.n	644 <_ZN7Pokitto4Core12jumpToLoaderEv+0xb4>
/home/manga/Projects/Pokitto/zboy-0.60/PokittoLib/POKITTO_CORE/PokittoCore.cpp:341
                    if (buttons.downBtn()) return;
     63c:	f7ff fed6 	bl	3ec <_ZN7Pokitto7Buttons7downBtnEv>
     640:	2800      	cmp	r0, #0
     642:	d12b      	bne.n	69c <_ZN7Pokitto4Core12jumpToLoaderEv+0x10c>
/home/manga/Projects/Pokitto/zboy-0.60/PokittoLib/POKITTO_CORE/PokittoCore.cpp:332
                    if (buttons.upBtn()) {
     644:	f7ff fecc 	bl	3e0 <_ZN7Pokitto7Buttons5upBtnEv>
     648:	2800      	cmp	r0, #0
     64a:	d0f7      	beq.n	63c <_ZN7Pokitto4Core12jumpToLoaderEv+0xac>
/home/manga/Projects/Pokitto/zboy-0.60/PokittoLib/POKITTO_CORE/PokittoCore.cpp:333
                        if (updateLoader(sdversion,sdjump)) {
     64c:	9901      	ldr	r1, [sp, #4]
     64e:	9800      	ldr	r0, [sp, #0]
     650:	f7ff ff54 	bl	4fc <_ZN7Pokitto4Core12updateLoaderEmm>
     654:	2800      	cmp	r0, #0
     656:	d14e      	bne.n	6f6 <_ZN7Pokitto4Core12jumpToLoaderEv+0x166>
/home/manga/Projects/Pokitto/zboy-0.60/PokittoLib/POKITTO_CORE/PokittoCore.cpp:295
    if (*bootinfo != 0xB007AB1E) bootinfo = (uint32_t*)0x3FF04; //allow couple of alternative locations
     658:	4f2e      	ldr	r7, [pc, #184]	; (714 <_ZN7Pokitto4Core12jumpToLoaderEv+0x184>)
/home/manga/Projects/Pokitto/zboy-0.60/PokittoLib/POKITTO_CORE/PokittoCore.cpp:336
                        display.println("SUCCESS!!");
     65a:	4838      	ldr	r0, [pc, #224]	; (73c <_ZN7Pokitto4Core12jumpToLoaderEv+0x1ac>)
     65c:	f001 fcd4 	bl	2008 <_ZN7Pokitto7Display7printlnEPKc>
/home/manga/Projects/Pokitto/zboy-0.60/PokittoLib/POKITTO_CORE/PokittoCore.cpp:295
    if (*bootinfo != 0xB007AB1E) bootinfo = (uint32_t*)0x3FF04; //allow couple of alternative locations
     660:	4a2d      	ldr	r2, [pc, #180]	; (718 <_ZN7Pokitto4Core12jumpToLoaderEv+0x188>)
     662:	683b      	ldr	r3, [r7, #0]
     664:	4293      	cmp	r3, r2
     666:	d1bd      	bne.n	5e4 <_ZN7Pokitto4Core12jumpToLoaderEv+0x54>
/home/manga/Projects/Pokitto/zboy-0.60/PokittoLib/POKITTO_CORE/PokittoCore.cpp:312
        display.directcolor=COLOR_CYAN;
     668:	4b35      	ldr	r3, [pc, #212]	; (740 <_ZN7Pokitto4Core12jumpToLoaderEv+0x1b0>)
/home/manga/Projects/Pokitto/zboy-0.60/PokittoLib/POKITTO_CORE/PokittoCore.cpp:313
        display.print("LOADER V.");
     66a:	4640      	mov	r0, r8
/home/manga/Projects/Pokitto/zboy-0.60/PokittoLib/POKITTO_CORE/PokittoCore.cpp:312
        display.directcolor=COLOR_CYAN;
     66c:	8023      	strh	r3, [r4, #0]
/home/manga/Projects/Pokitto/zboy-0.60/PokittoLib/POKITTO_CORE/PokittoCore.cpp:313
        display.print("LOADER V.");
     66e:	f001 fba5 	bl	1dbc <_ZN7Pokitto7Display5printEPKc>
/home/manga/Projects/Pokitto/zboy-0.60/PokittoLib/POKITTO_CORE/PokittoCore.cpp:314
        display.directcolor=COLOR_WHITE;
     672:	2301      	movs	r3, #1
/home/manga/Projects/Pokitto/zboy-0.60/PokittoLib/POKITTO_CORE/PokittoCore.cpp:315
        display.println(*(bootinfo+1));
     674:	210a      	movs	r1, #10
/home/manga/Projects/Pokitto/zboy-0.60/PokittoLib/POKITTO_CORE/PokittoCore.cpp:314
        display.directcolor=COLOR_WHITE;
     676:	425b      	negs	r3, r3
/home/manga/Projects/Pokitto/zboy-0.60/PokittoLib/POKITTO_CORE/PokittoCore.cpp:315
        display.println(*(bootinfo+1));
     678:	6878      	ldr	r0, [r7, #4]
/home/manga/Projects/Pokitto/zboy-0.60/PokittoLib/POKITTO_CORE/PokittoCore.cpp:314
        display.directcolor=COLOR_WHITE;
     67a:	8023      	strh	r3, [r4, #0]
/home/manga/Projects/Pokitto/zboy-0.60/PokittoLib/POKITTO_CORE/PokittoCore.cpp:315
        display.println(*(bootinfo+1));
     67c:	f001 fd9a 	bl	21b4 <_ZN7Pokitto7Display7printlnEmi>
/home/manga/Projects/Pokitto/zboy-0.60/PokittoLib/POKITTO_CORE/PokittoCore.cpp:317
        if (sdversion>(*(bootinfo+1))) flashloader=true;
     680:	687b      	ldr	r3, [r7, #4]
     682:	9a00      	ldr	r2, [sp, #0]
     684:	4293      	cmp	r3, r2
     686:	d3c6      	bcc.n	616 <_ZN7Pokitto4Core12jumpToLoaderEv+0x86>
/home/manga/Projects/Pokitto/zboy-0.60/PokittoLib/POKITTO_CORE/PokittoCore.cpp:318
        else start_application(*(bootinfo+2)); //never returns
     688:	68b8      	ldr	r0, [r7, #8]
     68a:	f7ff fedb 	bl	444 <_Z17start_applicationm>
     68e:	e02d      	b.n	6ec <_ZN7Pokitto4Core12jumpToLoaderEv+0x15c>
/home/manga/Projects/Pokitto/zboy-0.60/PokittoLib/POKITTO_CORE/PokittoCore.cpp:350
                buttons.pollButtons();
     690:	f7ff fe5a 	bl	348 <_ZN7Pokitto7Buttons11pollButtonsEv>
/home/manga/Projects/Pokitto/zboy-0.60/PokittoLib/POKITTO_CORE/PokittoCore.cpp:349
            while (buttons.aBtn()) {
     694:	f7ff fe9e 	bl	3d4 <_ZN7Pokitto7Buttons4aBtnEv>
     698:	2800      	cmp	r0, #0
     69a:	d1f9      	bne.n	690 <_ZN7Pokitto4Core12jumpToLoaderEv+0x100>
/home/manga/Projects/Pokitto/zboy-0.60/PokittoLib/POKITTO_CORE/PokittoCore.cpp:355
}
     69c:	b002      	add	sp, #8
     69e:	bc04      	pop	{r2}
     6a0:	4690      	mov	r8, r2
     6a2:	bdf0      	pop	{r4, r5, r6, r7, pc}
/home/manga/Projects/Pokitto/zboy-0.60/PokittoLib/POKITTO_CORE/PokittoCore.cpp:281
        fileEnd(); // go to end
     6a4:	f000 fa66 	bl	b74 <_Z7fileEndv>
/home/manga/Projects/Pokitto/zboy-0.60/PokittoLib/POKITTO_CORE/PokittoCore.cpp:282
        fileSeekRelative(-8); //rewind 8 bytes
     6a8:	2008      	movs	r0, #8
     6aa:	4240      	negs	r0, r0
     6ac:	f000 fa44 	bl	b38 <_Z16fileSeekRelativel>
/home/manga/Projects/Pokitto/zboy-0.60/PokittoLib/POKITTO_CORE/PokittoCore.cpp:284
        fileReadBytes((uint8_t*)tptr,4); //read version number of loader on SD card
     6b0:	2104      	movs	r1, #4
     6b2:	4668      	mov	r0, sp
     6b4:	f000 fa36 	bl	b24 <_Z13fileReadBytesPht>
/home/manga/Projects/Pokitto/zboy-0.60/PokittoLib/POKITTO_CORE/PokittoCore.cpp:286
        fileReadBytes((uint8_t*)tptr,4); //read jump address of loader on sd card
     6b8:	2104      	movs	r1, #4
     6ba:	a801      	add	r0, sp, #4
     6bc:	f000 fa32 	bl	b24 <_Z13fileReadBytesPht>
/home/manga/Projects/Pokitto/zboy-0.60/PokittoLib/POKITTO_CORE/PokittoCore.cpp:287
        fileRewind();
     6c0:	f000 fa4e 	bl	b60 <_Z10fileRewindv>
     6c4:	e785      	b.n	5d2 <_ZN7Pokitto4Core12jumpToLoaderEv+0x42>
/home/manga/Projects/Pokitto/zboy-0.60/PokittoLib/POKITTO_CORE/PokittoCore.cpp:304
                display.println("NO VALID LOA.DER ON SD");
     6c6:	481f      	ldr	r0, [pc, #124]	; (744 <_ZN7Pokitto4Core12jumpToLoaderEv+0x1b4>)
     6c8:	f001 fc9e 	bl	2008 <_ZN7Pokitto7Display7printlnEPKc>
/home/manga/Projects/Pokitto/zboy-0.60/PokittoLib/POKITTO_CORE/PokittoCore.cpp:305
                display.println("");
     6cc:	481e      	ldr	r0, [pc, #120]	; (748 <_ZN7Pokitto4Core12jumpToLoaderEv+0x1b8>)
     6ce:	f001 fc9b 	bl	2008 <_ZN7Pokitto7Display7printlnEPKc>
/home/manga/Projects/Pokitto/zboy-0.60/PokittoLib/POKITTO_CORE/PokittoCore.cpp:306
                display.directcolor=COLOR_GREEN;
     6d2:	23fc      	movs	r3, #252	; 0xfc
/home/manga/Projects/Pokitto/zboy-0.60/PokittoLib/POKITTO_CORE/PokittoCore.cpp:307
                display.println("PUT LOA.DER ON SD & REBOOT");
     6d4:	481d      	ldr	r0, [pc, #116]	; (74c <_ZN7Pokitto4Core12jumpToLoaderEv+0x1bc>)
/home/manga/Projects/Pokitto/zboy-0.60/PokittoLib/POKITTO_CORE/PokittoCore.cpp:306
                display.directcolor=COLOR_GREEN;
     6d6:	00db      	lsls	r3, r3, #3
     6d8:	8023      	strh	r3, [r4, #0]
/home/manga/Projects/Pokitto/zboy-0.60/PokittoLib/POKITTO_CORE/PokittoCore.cpp:307
                display.println("PUT LOA.DER ON SD & REBOOT");
     6da:	f001 fc95 	bl	2008 <_ZN7Pokitto7Display7printlnEPKc>
     6de:	e005      	b.n	6ec <_ZN7Pokitto4Core12jumpToLoaderEv+0x15c>
/home/manga/Projects/Pokitto/zboy-0.60/PokittoLib/POKITTO_CORE/PokittoCore.cpp:347
        buttons.pollButtons();
     6e0:	f7ff fe32 	bl	348 <_ZN7Pokitto7Buttons11pollButtonsEv>
/home/manga/Projects/Pokitto/zboy-0.60/PokittoLib/POKITTO_CORE/PokittoCore.cpp:348
        if (buttons.aBtn()) {
     6e4:	f7ff fe76 	bl	3d4 <_ZN7Pokitto7Buttons4aBtnEv>
     6e8:	2800      	cmp	r0, #0
     6ea:	d1d3      	bne.n	694 <_ZN7Pokitto4Core12jumpToLoaderEv+0x104>
/home/manga/Projects/Pokitto/zboy-0.60/PokittoLib/POKITTO_CORE/PokittoCore.cpp:346
    while (!buttons.aBtn()) {
     6ec:	f7ff fe72 	bl	3d4 <_ZN7Pokitto7Buttons4aBtnEv>
     6f0:	2800      	cmp	r0, #0
     6f2:	d0f5      	beq.n	6e0 <_ZN7Pokitto4Core12jumpToLoaderEv+0x150>
     6f4:	e7d2      	b.n	69c <_ZN7Pokitto4Core12jumpToLoaderEv+0x10c>
/home/manga/Projects/Pokitto/zboy-0.60/PokittoLib/POKITTO_CORE/PokittoCore.cpp:334
                            display.println("PUT LOA.DER ON SD AND RETRY");
     6f6:	4816      	ldr	r0, [pc, #88]	; (750 <_ZN7Pokitto4Core12jumpToLoaderEv+0x1c0>)
     6f8:	f001 fc86 	bl	2008 <_ZN7Pokitto7Display7printlnEPKc>
     6fc:	e7f6      	b.n	6ec <_ZN7Pokitto4Core12jumpToLoaderEv+0x15c>
     6fe:	46c0      	nop			; (mov r8, r8)
     700:	10000112 	.word	0x10000112
     704:	100018ec 	.word	0x100018ec
     708:	10000106 	.word	0x10000106
     70c:	0000f9c0 	.word	0x0000f9c0
     710:	0000fa10 	.word	0x0000fa10
     714:	0003fff4 	.word	0x0003fff4
     718:	b007ab1e 	.word	0xb007ab1e
     71c:	0000f9c8 	.word	0x0000f9c8
     720:	0000fa1c 	.word	0x0000fa1c
     724:	0003ff04 	.word	0x0003ff04
     728:	0003fe04 	.word	0x0003fe04
     72c:	0003f004 	.word	0x0003f004
     730:	00037fff 	.word	0x00037fff
     734:	fffff81f 	.word	0xfffff81f
     738:	0000fa30 	.word	0x0000fa30
     73c:	0000fa74 	.word	0x0000fa74
     740:	000007ff 	.word	0x000007ff
     744:	0000f9dc 	.word	0x0000f9dc
     748:	00010100 	.word	0x00010100
     74c:	0000f9f4 	.word	0x0000f9f4
     750:	0000fa58 	.word	0x0000fa58

00000754 <_ZN7Pokitto4Core9askLoaderEv>:
_ZN7Pokitto4Core9askLoaderEv():
/home/manga/Projects/Pokitto/zboy-0.60/PokittoLib/POKITTO_CORE/PokittoCore.cpp:357
void Core::askLoader() {
     754:	b5f8      	push	{r3, r4, r5, r6, r7, lr}
/home/manga/Projects/Pokitto/zboy-0.60/PokittoLib/POKITTO_CORE/PokittoCore.cpp:358
    display.enableDirectPrinting(true);
     756:	2001      	movs	r0, #1
     758:	f001 fa5a 	bl	1c10 <_ZN7Pokitto7Display20enableDirectPrintingEh>
/home/manga/Projects/Pokitto/zboy-0.60/PokittoLib/POKITTO_CORE/PokittoCore.cpp:359
    display.directbgcolor = COLOR_BLACK;
     75c:	2200      	movs	r2, #0
     75e:	4b4c      	ldr	r3, [pc, #304]	; (890 <_ZN7Pokitto4Core9askLoaderEv+0x13c>)
     760:	2500      	movs	r5, #0
     762:	801a      	strh	r2, [r3, #0]
/home/manga/Projects/Pokitto/zboy-0.60/PokittoLib/POKITTO_CORE/PokittoCore.cpp:360
    display.clearLCD();
     764:	f000 fa82 	bl	c6c <_ZN7Pokitto7Display8clearLCDEv>
/home/manga/Projects/Pokitto/zboy-0.60/PokittoLib/POKITTO_CORE/PokittoCore.cpp:361
    display.directcolor = COLOR_RED;
     768:	4c4a      	ldr	r4, [pc, #296]	; (894 <_ZN7Pokitto4Core9askLoaderEv+0x140>)
     76a:	4b4b      	ldr	r3, [pc, #300]	; (898 <_ZN7Pokitto4Core9askLoaderEv+0x144>)
/home/manga/Projects/Pokitto/zboy-0.60/PokittoLib/POKITTO_CORE/PokittoCore.cpp:362
    display.setFont(fntC64UIGfx);
     76c:	484b      	ldr	r0, [pc, #300]	; (89c <_ZN7Pokitto4Core9askLoaderEv+0x148>)
/home/manga/Projects/Pokitto/zboy-0.60/PokittoLib/POKITTO_CORE/PokittoCore.cpp:361
    display.directcolor = COLOR_RED;
     76e:	8023      	strh	r3, [r4, #0]
/home/manga/Projects/Pokitto/zboy-0.60/PokittoLib/POKITTO_CORE/PokittoCore.cpp:362
    display.setFont(fntC64UIGfx);
     770:	f001 fa3c 	bl	1bec <_ZN7Pokitto7Display7setFontEPKh>
/home/manga/Projects/Pokitto/zboy-0.60/PokittoLib/POKITTO_CORE/PokittoCore.cpp:363
    display.fontSize=1;
     774:	2301      	movs	r3, #1
/home/manga/Projects/Pokitto/zboy-0.60/PokittoLib/POKITTO_CORE/PokittoCore.cpp:366
    display.directcolor=COLOR_GREEN;
     776:	27fc      	movs	r7, #252	; 0xfc
/home/manga/Projects/Pokitto/zboy-0.60/PokittoLib/POKITTO_CORE/PokittoCore.cpp:363
    display.fontSize=1;
     778:	4e49      	ldr	r6, [pc, #292]	; (8a0 <_ZN7Pokitto4Core9askLoaderEv+0x14c>)
/home/manga/Projects/Pokitto/zboy-0.60/PokittoLib/POKITTO_CORE/PokittoCore.cpp:367
    display.set_cursor(12*8,6*8);
     77a:	2130      	movs	r1, #48	; 0x30
/home/manga/Projects/Pokitto/zboy-0.60/PokittoLib/POKITTO_CORE/PokittoCore.cpp:363
    display.fontSize=1;
     77c:	7033      	strb	r3, [r6, #0]
/home/manga/Projects/Pokitto/zboy-0.60/PokittoLib/POKITTO_CORE/PokittoCore.cpp:364
    display.adjustCharStep = 0;
     77e:	4b49      	ldr	r3, [pc, #292]	; (8a4 <_ZN7Pokitto4Core9askLoaderEv+0x150>)
/home/manga/Projects/Pokitto/zboy-0.60/PokittoLib/POKITTO_CORE/PokittoCore.cpp:366
    display.directcolor=COLOR_GREEN;
     780:	00ff      	lsls	r7, r7, #3
/home/manga/Projects/Pokitto/zboy-0.60/PokittoLib/POKITTO_CORE/PokittoCore.cpp:364
    display.adjustCharStep = 0;
     782:	701d      	strb	r5, [r3, #0]
/home/manga/Projects/Pokitto/zboy-0.60/PokittoLib/POKITTO_CORE/PokittoCore.cpp:365
    display.adjustLineStep = 0;
     784:	4b48      	ldr	r3, [pc, #288]	; (8a8 <_ZN7Pokitto4Core9askLoaderEv+0x154>)
/home/manga/Projects/Pokitto/zboy-0.60/PokittoLib/POKITTO_CORE/PokittoCore.cpp:367
    display.set_cursor(12*8,6*8);
     786:	2060      	movs	r0, #96	; 0x60
/home/manga/Projects/Pokitto/zboy-0.60/PokittoLib/POKITTO_CORE/PokittoCore.cpp:365
    display.adjustLineStep = 0;
     788:	701d      	strb	r5, [r3, #0]
/home/manga/Projects/Pokitto/zboy-0.60/PokittoLib/POKITTO_CORE/PokittoCore.cpp:377
    display.directcolor=COLOR_WHITE;
     78a:	2501      	movs	r5, #1
/home/manga/Projects/Pokitto/zboy-0.60/PokittoLib/POKITTO_CORE/PokittoCore.cpp:366
    display.directcolor=COLOR_GREEN;
     78c:	8027      	strh	r7, [r4, #0]
/home/manga/Projects/Pokitto/zboy-0.60/PokittoLib/POKITTO_CORE/PokittoCore.cpp:367
    display.set_cursor(12*8,6*8);
     78e:	f001 fd49 	bl	2224 <_ZN7Pokitto7Display10set_cursorEhh>
/home/manga/Projects/Pokitto/zboy-0.60/PokittoLib/POKITTO_CORE/PokittoCore.cpp:368
    display.print("ijkl");
     792:	4846      	ldr	r0, [pc, #280]	; (8ac <_ZN7Pokitto4Core9askLoaderEv+0x158>)
     794:	f001 fb12 	bl	1dbc <_ZN7Pokitto7Display5printEPKc>
/home/manga/Projects/Pokitto/zboy-0.60/PokittoLib/POKITTO_CORE/PokittoCore.cpp:369
    display.set_cursor(12*8,7*8);
     798:	2138      	movs	r1, #56	; 0x38
     79a:	2060      	movs	r0, #96	; 0x60
     79c:	f001 fd42 	bl	2224 <_ZN7Pokitto7Display10set_cursorEhh>
/home/manga/Projects/Pokitto/zboy-0.60/PokittoLib/POKITTO_CORE/PokittoCore.cpp:370
    display.print("mnop");
     7a0:	4843      	ldr	r0, [pc, #268]	; (8b0 <_ZN7Pokitto4Core9askLoaderEv+0x15c>)
     7a2:	f001 fb0b 	bl	1dbc <_ZN7Pokitto7Display5printEPKc>
/home/manga/Projects/Pokitto/zboy-0.60/PokittoLib/POKITTO_CORE/PokittoCore.cpp:371
    display.set_cursor(12*8,8*8);
     7a6:	2140      	movs	r1, #64	; 0x40
     7a8:	2060      	movs	r0, #96	; 0x60
     7aa:	f001 fd3b 	bl	2224 <_ZN7Pokitto7Display10set_cursorEhh>
/home/manga/Projects/Pokitto/zboy-0.60/PokittoLib/POKITTO_CORE/PokittoCore.cpp:372
    display.print("qrst");
     7ae:	4841      	ldr	r0, [pc, #260]	; (8b4 <_ZN7Pokitto4Core9askLoaderEv+0x160>)
     7b0:	f001 fb04 	bl	1dbc <_ZN7Pokitto7Display5printEPKc>
/home/manga/Projects/Pokitto/zboy-0.60/PokittoLib/POKITTO_CORE/PokittoCore.cpp:373
    display.set_cursor(12*8,9*8);
     7b4:	2148      	movs	r1, #72	; 0x48
     7b6:	2060      	movs	r0, #96	; 0x60
     7b8:	f001 fd34 	bl	2224 <_ZN7Pokitto7Display10set_cursorEhh>
/home/manga/Projects/Pokitto/zboy-0.60/PokittoLib/POKITTO_CORE/PokittoCore.cpp:374
    display.print("uvwx");
     7bc:	483e      	ldr	r0, [pc, #248]	; (8b8 <_ZN7Pokitto4Core9askLoaderEv+0x164>)
     7be:	f001 fafd 	bl	1dbc <_ZN7Pokitto7Display5printEPKc>
/home/manga/Projects/Pokitto/zboy-0.60/PokittoLib/POKITTO_CORE/PokittoCore.cpp:375
    display.set_cursor(5*8,12*8);
     7c2:	2160      	movs	r1, #96	; 0x60
     7c4:	2028      	movs	r0, #40	; 0x28
     7c6:	f001 fd2d 	bl	2224 <_ZN7Pokitto7Display10set_cursorEhh>
/home/manga/Projects/Pokitto/zboy-0.60/PokittoLib/POKITTO_CORE/PokittoCore.cpp:376
    display.print("PRESS");
     7ca:	483c      	ldr	r0, [pc, #240]	; (8bc <_ZN7Pokitto4Core9askLoaderEv+0x168>)
     7cc:	f001 faf6 	bl	1dbc <_ZN7Pokitto7Display5printEPKc>
/home/manga/Projects/Pokitto/zboy-0.60/PokittoLib/POKITTO_CORE/PokittoCore.cpp:377
    display.directcolor=COLOR_WHITE;
     7d0:	426d      	negs	r5, r5
/home/manga/Projects/Pokitto/zboy-0.60/PokittoLib/POKITTO_CORE/PokittoCore.cpp:378
    display.print(" C ");
     7d2:	483b      	ldr	r0, [pc, #236]	; (8c0 <_ZN7Pokitto4Core9askLoaderEv+0x16c>)
/home/manga/Projects/Pokitto/zboy-0.60/PokittoLib/POKITTO_CORE/PokittoCore.cpp:377
    display.directcolor=COLOR_WHITE;
     7d4:	8025      	strh	r5, [r4, #0]
/home/manga/Projects/Pokitto/zboy-0.60/PokittoLib/POKITTO_CORE/PokittoCore.cpp:378
    display.print(" C ");
     7d6:	f001 faf1 	bl	1dbc <_ZN7Pokitto7Display5printEPKc>
/home/manga/Projects/Pokitto/zboy-0.60/PokittoLib/POKITTO_CORE/PokittoCore.cpp:380
    display.print("FOR LOADER");
     7da:	483a      	ldr	r0, [pc, #232]	; (8c4 <_ZN7Pokitto4Core9askLoaderEv+0x170>)
/home/manga/Projects/Pokitto/zboy-0.60/PokittoLib/POKITTO_CORE/PokittoCore.cpp:379
    display.directcolor=COLOR_GREEN;
     7dc:	8027      	strh	r7, [r4, #0]
/home/manga/Projects/Pokitto/zboy-0.60/PokittoLib/POKITTO_CORE/PokittoCore.cpp:380
    display.print("FOR LOADER");
     7de:	f001 faed 	bl	1dbc <_ZN7Pokitto7Display5printEPKc>
/home/manga/Projects/Pokitto/zboy-0.60/PokittoLib/POKITTO_CORE/PokittoCore.cpp:382
    display.fontSize=2;
     7e2:	2302      	movs	r3, #2
/home/manga/Projects/Pokitto/zboy-0.60/PokittoLib/POKITTO_CORE/PokittoCore.cpp:386
    countd = eeprom_read_byte((uint16_t*)EESETTINGS_LOADERWAIT);
     7e4:	4838      	ldr	r0, [pc, #224]	; (8c8 <_ZN7Pokitto4Core9askLoaderEv+0x174>)
/home/manga/Projects/Pokitto/zboy-0.60/PokittoLib/POKITTO_CORE/PokittoCore.cpp:382
    display.fontSize=2;
     7e6:	7033      	strb	r3, [r6, #0]
/home/manga/Projects/Pokitto/zboy-0.60/PokittoLib/POKITTO_CORE/PokittoCore.cpp:381
    display.directcolor=COLOR_WHITE;
     7e8:	8025      	strh	r5, [r4, #0]
/home/manga/Projects/Pokitto/zboy-0.60/PokittoLib/POKITTO_CORE/PokittoCore.cpp:386
    countd = eeprom_read_byte((uint16_t*)EESETTINGS_LOADERWAIT);
     7ea:	f003 f9e3 	bl	3bb4 <_Z16eeprom_read_bytePt>
/home/manga/Projects/Pokitto/zboy-0.60/PokittoLib/POKITTO_CORE/PokittoCore.cpp:388
    if (countd==0 || countd > 5) countd=3;
     7ee:	1943      	adds	r3, r0, r5
     7f0:	b2db      	uxtb	r3, r3
     7f2:	2b04      	cmp	r3, #4
     7f4:	d900      	bls.n	7f8 <_ZN7Pokitto4Core9askLoaderEv+0xa4>
     7f6:	2003      	movs	r0, #3
     7f8:	0004      	movs	r4, r0
/home/manga/Projects/Pokitto/zboy-0.60/PokittoLib/POKITTO_CORE/PokittoCore.cpp:389
    uint16_t c2 = getTime();
     7fa:	f003 f883 	bl	3904 <_ZN7Pokitto4Core7getTimeEv>
     7fe:	b285      	uxth	r5, r0
/home/manga/Projects/Pokitto/zboy-0.60/PokittoLib/POKITTO_CORE/PokittoCore.cpp:391
        buttons.pollButtons();
     800:	f7ff fda2 	bl	348 <_ZN7Pokitto7Buttons11pollButtonsEv>
/home/manga/Projects/Pokitto/zboy-0.60/PokittoLib/POKITTO_CORE/PokittoCore.cpp:392
        display.set_cursor(13*8,15*8);
     804:	2178      	movs	r1, #120	; 0x78
     806:	2068      	movs	r0, #104	; 0x68
     808:	f001 fd0c 	bl	2224 <_ZN7Pokitto7Display10set_cursorEhh>
/home/manga/Projects/Pokitto/zboy-0.60/PokittoLib/POKITTO_CORE/PokittoCore.cpp:393
        display.print(countd);
     80c:	210a      	movs	r1, #10
     80e:	0020      	movs	r0, r4
     810:	f001 fba2 	bl	1f58 <_ZN7Pokitto7Display5printEii>
/home/manga/Projects/Pokitto/zboy-0.60/PokittoLib/POKITTO_CORE/PokittoCore.cpp:394
        if (getTime()>c2+1000) {
     814:	f003 f876 	bl	3904 <_ZN7Pokitto4Core7getTimeEv>
     818:	23fa      	movs	r3, #250	; 0xfa
     81a:	009b      	lsls	r3, r3, #2
     81c:	18eb      	adds	r3, r5, r3
     81e:	4298      	cmp	r0, r3
     820:	d831      	bhi.n	886 <_ZN7Pokitto4Core9askLoaderEv+0x132>
/home/manga/Projects/Pokitto/zboy-0.60/PokittoLib/POKITTO_CORE/PokittoCore.cpp:398
        if (cBtn()) {while (cBtn()) buttons.pollButtons();jumpToLoader();countd=0;}
     822:	f002 f80b 	bl	283c <_ZN7Pokitto4Core4cBtnEv>
     826:	2800      	cmp	r0, #0
     828:	d113      	bne.n	852 <_ZN7Pokitto4Core9askLoaderEv+0xfe>
/home/manga/Projects/Pokitto/zboy-0.60/PokittoLib/POKITTO_CORE/PokittoCore.cpp:399
        if (aBtn()) {while (aBtn()) buttons.pollButtons();countd=0;}
     82a:	f001 fffb 	bl	2824 <_ZN7Pokitto4Core4aBtnEv>
     82e:	2800      	cmp	r0, #0
     830:	d120      	bne.n	874 <_ZN7Pokitto4Core9askLoaderEv+0x120>
/home/manga/Projects/Pokitto/zboy-0.60/PokittoLib/POKITTO_CORE/PokittoCore.cpp:400
        if (bBtn()) {while (bBtn()) buttons.pollButtons();countd=0;}
     832:	f001 fffd 	bl	2830 <_ZN7Pokitto4Core4bBtnEv>
     836:	2800      	cmp	r0, #0
     838:	d115      	bne.n	866 <_ZN7Pokitto4Core9askLoaderEv+0x112>
/home/manga/Projects/Pokitto/zboy-0.60/PokittoLib/POKITTO_CORE/PokittoCore.cpp:390
    while (countd) {
     83a:	2c00      	cmp	r4, #0
     83c:	d1e0      	bne.n	800 <_ZN7Pokitto4Core9askLoaderEv+0xac>
/home/manga/Projects/Pokitto/zboy-0.60/PokittoLib/POKITTO_CORE/PokittoCore.cpp:402
    display.fontSize=1;
     83e:	2301      	movs	r3, #1
     840:	7033      	strb	r3, [r6, #0]
/home/manga/Projects/Pokitto/zboy-0.60/PokittoLib/POKITTO_CORE/PokittoCore.cpp:403
    display.clearLCD();
     842:	f000 fa13 	bl	c6c <_ZN7Pokitto7Display8clearLCDEv>
/home/manga/Projects/Pokitto/zboy-0.60/PokittoLib/POKITTO_CORE/PokittoCore.cpp:404
    display.enableDirectPrinting(false);
     846:	2000      	movs	r0, #0
     848:	f001 f9e2 	bl	1c10 <_ZN7Pokitto7Display20enableDirectPrintingEh>
/home/manga/Projects/Pokitto/zboy-0.60/PokittoLib/POKITTO_CORE/PokittoCore.cpp:405
}
     84c:	bdf8      	pop	{r3, r4, r5, r6, r7, pc}
/home/manga/Projects/Pokitto/zboy-0.60/PokittoLib/POKITTO_CORE/PokittoCore.cpp:398 (discriminator 2)
        if (cBtn()) {while (cBtn()) buttons.pollButtons();jumpToLoader();countd=0;}
     84e:	f7ff fd7b 	bl	348 <_ZN7Pokitto7Buttons11pollButtonsEv>
/home/manga/Projects/Pokitto/zboy-0.60/PokittoLib/POKITTO_CORE/PokittoCore.cpp:398 (discriminator 4)
     852:	f001 fff3 	bl	283c <_ZN7Pokitto4Core4cBtnEv>
     856:	2800      	cmp	r0, #0
     858:	d1f9      	bne.n	84e <_ZN7Pokitto4Core9askLoaderEv+0xfa>
/home/manga/Projects/Pokitto/zboy-0.60/PokittoLib/POKITTO_CORE/PokittoCore.cpp:398 (discriminator 3)
     85a:	f7ff fe99 	bl	590 <_ZN7Pokitto4Core12jumpToLoaderEv>
     85e:	2400      	movs	r4, #0
     860:	e7e3      	b.n	82a <_ZN7Pokitto4Core9askLoaderEv+0xd6>
/home/manga/Projects/Pokitto/zboy-0.60/PokittoLib/POKITTO_CORE/PokittoCore.cpp:400 (discriminator 2)
        if (bBtn()) {while (bBtn()) buttons.pollButtons();countd=0;}
     862:	f7ff fd71 	bl	348 <_ZN7Pokitto7Buttons11pollButtonsEv>
/home/manga/Projects/Pokitto/zboy-0.60/PokittoLib/POKITTO_CORE/PokittoCore.cpp:400 (discriminator 4)
     866:	f001 ffe3 	bl	2830 <_ZN7Pokitto4Core4bBtnEv>
     86a:	2800      	cmp	r0, #0
     86c:	d1f9      	bne.n	862 <_ZN7Pokitto4Core9askLoaderEv+0x10e>
     86e:	e7e6      	b.n	83e <_ZN7Pokitto4Core9askLoaderEv+0xea>
/home/manga/Projects/Pokitto/zboy-0.60/PokittoLib/POKITTO_CORE/PokittoCore.cpp:399 (discriminator 2)
        if (aBtn()) {while (aBtn()) buttons.pollButtons();countd=0;}
     870:	f7ff fd6a 	bl	348 <_ZN7Pokitto7Buttons11pollButtonsEv>
/home/manga/Projects/Pokitto/zboy-0.60/PokittoLib/POKITTO_CORE/PokittoCore.cpp:399 (discriminator 4)
     874:	f001 ffd6 	bl	2824 <_ZN7Pokitto4Core4aBtnEv>
     878:	2800      	cmp	r0, #0
     87a:	d1f9      	bne.n	870 <_ZN7Pokitto4Core9askLoaderEv+0x11c>
/home/manga/Projects/Pokitto/zboy-0.60/PokittoLib/POKITTO_CORE/PokittoCore.cpp:400
        if (bBtn()) {while (bBtn()) buttons.pollButtons();countd=0;}
     87c:	f001 ffd8 	bl	2830 <_ZN7Pokitto4Core4bBtnEv>
     880:	2800      	cmp	r0, #0
     882:	d1f0      	bne.n	866 <_ZN7Pokitto4Core9askLoaderEv+0x112>
     884:	e7db      	b.n	83e <_ZN7Pokitto4Core9askLoaderEv+0xea>
/home/manga/Projects/Pokitto/zboy-0.60/PokittoLib/POKITTO_CORE/PokittoCore.cpp:395
            c2=getTime();
     886:	f003 f83d 	bl	3904 <_ZN7Pokitto4Core7getTimeEv>
/home/manga/Projects/Pokitto/zboy-0.60/PokittoLib/POKITTO_CORE/PokittoCore.cpp:396
            countd--;
     88a:	3c01      	subs	r4, #1
/home/manga/Projects/Pokitto/zboy-0.60/PokittoLib/POKITTO_CORE/PokittoCore.cpp:395
            c2=getTime();
     88c:	b285      	uxth	r5, r0
     88e:	e7c8      	b.n	822 <_ZN7Pokitto4Core9askLoaderEv+0xce>
     890:	100018ec 	.word	0x100018ec
     894:	10000106 	.word	0x10000106
     898:	fffff800 	.word	0xfffff800
     89c:	0000f4f0 	.word	0x0000f4f0
     8a0:	10000112 	.word	0x10000112
     8a4:	10000108 	.word	0x10000108
     8a8:	10000109 	.word	0x10000109
     8ac:	0000fabc 	.word	0x0000fabc
     8b0:	0000fac4 	.word	0x0000fac4
     8b4:	0000facc 	.word	0x0000facc
     8b8:	0000fad4 	.word	0x0000fad4
     8bc:	0000fadc 	.word	0x0000fadc
     8c0:	0000fae4 	.word	0x0000fae4
     8c4:	0000fae8 	.word	0x0000fae8
     8c8:	00000fa2 	.word	0x00000fa2

000008cc <_ZN7Pokitto4Core8showLogoEv>:
_ZN7Pokitto4Core8showLogoEv():
/home/manga/Projects/Pokitto/zboy-0.60/PokittoLib/POKITTO_CORE/PokittoCore.cpp:763
                display.directcolor = display.interpolateColor(sc, COLOR_GREEN, i);
     8cc:	23fc      	movs	r3, #252	; 0xfc
/home/manga/Projects/Pokitto/zboy-0.60/PokittoLib/POKITTO_CORE/PokittoCore.cpp:744
void Core::showLogo() {
     8ce:	b5f0      	push	{r4, r5, r6, r7, lr}
     8d0:	4647      	mov	r7, r8
     8d2:	46ce      	mov	lr, r9
/home/manga/Projects/Pokitto/zboy-0.60/PokittoLib/POKITTO_CORE/PokittoCore.cpp:763
                display.directcolor = display.interpolateColor(sc, COLOR_GREEN, i);
     8d4:	00db      	lsls	r3, r3, #3
     8d6:	4699      	mov	r9, r3
     8d8:	4b30      	ldr	r3, [pc, #192]	; (99c <_ZN7Pokitto4Core8showLogoEv+0xd0>)
/home/manga/Projects/Pokitto/zboy-0.60/PokittoLib/POKITTO_CORE/PokittoCore.cpp:747
    uint16_t counter=0, i=0;
     8da:	2600      	movs	r6, #0
/home/manga/Projects/Pokitto/zboy-0.60/PokittoLib/POKITTO_CORE/PokittoCore.cpp:746
    uint8_t state=0; //jump directly to logo, bypass teeth
     8dc:	2500      	movs	r5, #0
/home/manga/Projects/Pokitto/zboy-0.60/PokittoLib/POKITTO_CORE/PokittoCore.cpp:763
                display.directcolor = display.interpolateColor(sc, COLOR_GREEN, i);
     8de:	4698      	mov	r8, r3
/home/manga/Projects/Pokitto/zboy-0.60/PokittoLib/POKITTO_CORE/PokittoCore.cpp:744
void Core::showLogo() {
     8e0:	b580      	push	{r7, lr}
     8e2:	4c2f      	ldr	r4, [pc, #188]	; (9a0 <_ZN7Pokitto4Core8showLogoEv+0xd4>)
/home/manga/Projects/Pokitto/zboy-0.60/PokittoLib/POKITTO_CORE/PokittoCore.cpp:764
                display.directBitmap(POK_LCD_W/2 - (*Pokitto_logo/2),POK_LCD_H/2-(*(Pokitto_logo+1)/2),Pokitto_logo,1,1);
     8e4:	4f2f      	ldr	r7, [pc, #188]	; (9a4 <_ZN7Pokitto4Core8showLogoEv+0xd8>)
/home/manga/Projects/Pokitto/zboy-0.60/PokittoLib/POKITTO_CORE/PokittoCore.cpp:744
void Core::showLogo() {
     8e6:	b083      	sub	sp, #12
/home/manga/Projects/Pokitto/zboy-0.60/PokittoLib/POKITTO_CORE/PokittoCore.cpp:750
    now=getTime();
     8e8:	f003 f80c 	bl	3904 <_ZN7Pokitto4Core7getTimeEv>
/home/manga/Projects/Pokitto/zboy-0.60/PokittoLib/POKITTO_CORE/PokittoCore.cpp:751
    if (now>refreshtime) {
     8ec:	6823      	ldr	r3, [r4, #0]
     8ee:	4283      	cmp	r3, r0
     8f0:	d2fa      	bcs.n	8e8 <_ZN7Pokitto4Core8showLogoEv+0x1c>
/home/manga/Projects/Pokitto/zboy-0.60/PokittoLib/POKITTO_CORE/PokittoCore.cpp:752
            refreshtime=now+30;
     8f2:	301e      	adds	r0, #30
     8f4:	6020      	str	r0, [r4, #0]
/home/manga/Projects/Pokitto/zboy-0.60/PokittoLib/POKITTO_CORE/PokittoCore.cpp:753
            switch (state) {
     8f6:	2d01      	cmp	r5, #1
     8f8:	d02a      	beq.n	950 <_ZN7Pokitto4Core8showLogoEv+0x84>
     8fa:	2d00      	cmp	r5, #0
     8fc:	d01d      	beq.n	93a <_ZN7Pokitto4Core8showLogoEv+0x6e>
     8fe:	2d02      	cmp	r5, #2
     900:	d13f      	bne.n	982 <_ZN7Pokitto4Core8showLogoEv+0xb6>
/home/manga/Projects/Pokitto/zboy-0.60/PokittoLib/POKITTO_CORE/PokittoCore.cpp:770
                display.directcolor = COLOR_GREEN;
     902:	464a      	mov	r2, r9
     904:	4b25      	ldr	r3, [pc, #148]	; (99c <_ZN7Pokitto4Core8showLogoEv+0xd0>)
/home/manga/Projects/Pokitto/zboy-0.60/PokittoLib/POKITTO_CORE/PokittoCore.cpp:771
                display.directBitmap(POK_LCD_W/2 - (*Pokitto_logo/2),POK_LCD_H/2-(*(Pokitto_logo+1)/2),Pokitto_logo,1,1);
     906:	206e      	movs	r0, #110	; 0x6e
/home/manga/Projects/Pokitto/zboy-0.60/PokittoLib/POKITTO_CORE/PokittoCore.cpp:770
                display.directcolor = COLOR_GREEN;
     908:	801a      	strh	r2, [r3, #0]
/home/manga/Projects/Pokitto/zboy-0.60/PokittoLib/POKITTO_CORE/PokittoCore.cpp:771
                display.directBitmap(POK_LCD_W/2 - (*Pokitto_logo/2),POK_LCD_H/2-(*(Pokitto_logo+1)/2),Pokitto_logo,1,1);
     90a:	2358      	movs	r3, #88	; 0x58
     90c:	4a25      	ldr	r2, [pc, #148]	; (9a4 <_ZN7Pokitto4Core8showLogoEv+0xd8>)
/home/manga/Projects/Pokitto/zboy-0.60/PokittoLib/POKITTO_CORE/PokittoCore.cpp:772
                i+= 0x3F;
     90e:	363f      	adds	r6, #63	; 0x3f
/home/manga/Projects/Pokitto/zboy-0.60/PokittoLib/POKITTO_CORE/PokittoCore.cpp:771
                display.directBitmap(POK_LCD_W/2 - (*Pokitto_logo/2),POK_LCD_H/2-(*(Pokitto_logo+1)/2),Pokitto_logo,1,1);
     910:	7851      	ldrb	r1, [r2, #1]
/home/manga/Projects/Pokitto/zboy-0.60/PokittoLib/POKITTO_CORE/PokittoCore.cpp:772
                i+= 0x3F;
     912:	b2b6      	uxth	r6, r6
/home/manga/Projects/Pokitto/zboy-0.60/PokittoLib/POKITTO_CORE/PokittoCore.cpp:771
                display.directBitmap(POK_LCD_W/2 - (*Pokitto_logo/2),POK_LCD_H/2-(*(Pokitto_logo+1)/2),Pokitto_logo,1,1);
     914:	0849      	lsrs	r1, r1, #1
     916:	1a59      	subs	r1, r3, r1
     918:	7813      	ldrb	r3, [r2, #0]
     91a:	085b      	lsrs	r3, r3, #1
     91c:	1ac0      	subs	r0, r0, r3
     91e:	2301      	movs	r3, #1
     920:	9300      	str	r3, [sp, #0]
     922:	f000 fa37 	bl	d94 <_ZN7Pokitto7Display12directBitmapEssPKhhh>
/home/manga/Projects/Pokitto/zboy-0.60/PokittoLib/POKITTO_CORE/PokittoCore.cpp:773
                if (i>0x3FF) state = 255;
     926:	4b20      	ldr	r3, [pc, #128]	; (9a8 <_ZN7Pokitto4Core8showLogoEv+0xdc>)
     928:	429e      	cmp	r6, r3
     92a:	d92a      	bls.n	982 <_ZN7Pokitto4Core8showLogoEv+0xb6>
/home/manga/Projects/Pokitto/zboy-0.60/PokittoLib/POKITTO_CORE/PokittoCore.cpp:776
            if(buttons.aBtn()) state=255;
     92c:	f7ff fd52 	bl	3d4 <_ZN7Pokitto7Buttons4aBtnEv>
/home/manga/Projects/Pokitto/zboy-0.60/PokittoLib/POKITTO_CORE/PokittoCore.cpp:779
}
     930:	b003      	add	sp, #12
     932:	bc0c      	pop	{r2, r3}
     934:	4690      	mov	r8, r2
     936:	4699      	mov	r9, r3
     938:	bdf0      	pop	{r4, r5, r6, r7, pc}
/home/manga/Projects/Pokitto/zboy-0.60/PokittoLib/POKITTO_CORE/PokittoCore.cpp:756
                display.directbgcolor = COLOR_BLACK;
     93a:	4b1c      	ldr	r3, [pc, #112]	; (9ac <_ZN7Pokitto4Core8showLogoEv+0xe0>)
/home/manga/Projects/Pokitto/zboy-0.60/PokittoLib/POKITTO_CORE/PokittoCore.cpp:757
                display.fillLCD(display.directbgcolor);
     93c:	2000      	movs	r0, #0
/home/manga/Projects/Pokitto/zboy-0.60/PokittoLib/POKITTO_CORE/PokittoCore.cpp:756
                display.directbgcolor = COLOR_BLACK;
     93e:	801d      	strh	r5, [r3, #0]
/home/manga/Projects/Pokitto/zboy-0.60/PokittoLib/POKITTO_CORE/PokittoCore.cpp:757
                display.fillLCD(display.directbgcolor);
     940:	f000 f9a2 	bl	c88 <_ZN7Pokitto7Display7fillLCDEt>
/home/manga/Projects/Pokitto/zboy-0.60/PokittoLib/POKITTO_CORE/PokittoCore.cpp:776
            if(buttons.aBtn()) state=255;
     944:	f7ff fd46 	bl	3d4 <_ZN7Pokitto7Buttons4aBtnEv>
     948:	2800      	cmp	r0, #0
     94a:	d1f1      	bne.n	930 <_ZN7Pokitto4Core8showLogoEv+0x64>
/home/manga/Projects/Pokitto/zboy-0.60/PokittoLib/POKITTO_CORE/PokittoCore.cpp:759
                state++;
     94c:	2501      	movs	r5, #1
     94e:	e7cb      	b.n	8e8 <_ZN7Pokitto4Core8showLogoEv+0x1c>
/home/manga/Projects/Pokitto/zboy-0.60/PokittoLib/POKITTO_CORE/PokittoCore.cpp:763
                display.directcolor = display.interpolateColor(sc, COLOR_GREEN, i);
     950:	21fc      	movs	r1, #252	; 0xfc
     952:	b2f2      	uxtb	r2, r6
     954:	00c9      	lsls	r1, r1, #3
     956:	2000      	movs	r0, #0
     958:	f001 fd46 	bl	23e8 <_ZN7Pokitto7Display16interpolateColorEtth>
     95c:	4643      	mov	r3, r8
/home/manga/Projects/Pokitto/zboy-0.60/PokittoLib/POKITTO_CORE/PokittoCore.cpp:764
                display.directBitmap(POK_LCD_W/2 - (*Pokitto_logo/2),POK_LCD_H/2-(*(Pokitto_logo+1)/2),Pokitto_logo,1,1);
     95e:	2158      	movs	r1, #88	; 0x58
/home/manga/Projects/Pokitto/zboy-0.60/PokittoLib/POKITTO_CORE/PokittoCore.cpp:763
                display.directcolor = display.interpolateColor(sc, COLOR_GREEN, i);
     960:	8018      	strh	r0, [r3, #0]
/home/manga/Projects/Pokitto/zboy-0.60/PokittoLib/POKITTO_CORE/PokittoCore.cpp:764
                display.directBitmap(POK_LCD_W/2 - (*Pokitto_logo/2),POK_LCD_H/2-(*(Pokitto_logo+1)/2),Pokitto_logo,1,1);
     962:	206e      	movs	r0, #110	; 0x6e
     964:	787b      	ldrb	r3, [r7, #1]
/home/manga/Projects/Pokitto/zboy-0.60/PokittoLib/POKITTO_CORE/PokittoCore.cpp:765
                i += 28;
     966:	361c      	adds	r6, #28
/home/manga/Projects/Pokitto/zboy-0.60/PokittoLib/POKITTO_CORE/PokittoCore.cpp:764
                display.directBitmap(POK_LCD_W/2 - (*Pokitto_logo/2),POK_LCD_H/2-(*(Pokitto_logo+1)/2),Pokitto_logo,1,1);
     968:	085b      	lsrs	r3, r3, #1
     96a:	1ac9      	subs	r1, r1, r3
     96c:	783b      	ldrb	r3, [r7, #0]
     96e:	003a      	movs	r2, r7
     970:	085b      	lsrs	r3, r3, #1
     972:	1ac0      	subs	r0, r0, r3
     974:	9500      	str	r5, [sp, #0]
     976:	2301      	movs	r3, #1
/home/manga/Projects/Pokitto/zboy-0.60/PokittoLib/POKITTO_CORE/PokittoCore.cpp:765
                i += 28;
     978:	b2b6      	uxth	r6, r6
/home/manga/Projects/Pokitto/zboy-0.60/PokittoLib/POKITTO_CORE/PokittoCore.cpp:764
                display.directBitmap(POK_LCD_W/2 - (*Pokitto_logo/2),POK_LCD_H/2-(*(Pokitto_logo+1)/2),Pokitto_logo,1,1);
     97a:	f000 fa0b 	bl	d94 <_ZN7Pokitto7Display12directBitmapEssPKhhh>
/home/manga/Projects/Pokitto/zboy-0.60/PokittoLib/POKITTO_CORE/PokittoCore.cpp:766
                if (i>=0xFF) { state++; i=0;}
     97e:	2efe      	cmp	r6, #254	; 0xfe
     980:	d804      	bhi.n	98c <_ZN7Pokitto4Core8showLogoEv+0xc0>
/home/manga/Projects/Pokitto/zboy-0.60/PokittoLib/POKITTO_CORE/PokittoCore.cpp:776
            if(buttons.aBtn()) state=255;
     982:	f7ff fd27 	bl	3d4 <_ZN7Pokitto7Buttons4aBtnEv>
     986:	2800      	cmp	r0, #0
     988:	d0ae      	beq.n	8e8 <_ZN7Pokitto4Core8showLogoEv+0x1c>
     98a:	e7d1      	b.n	930 <_ZN7Pokitto4Core8showLogoEv+0x64>
     98c:	f7ff fd22 	bl	3d4 <_ZN7Pokitto7Buttons4aBtnEv>
     990:	2800      	cmp	r0, #0
     992:	d1cd      	bne.n	930 <_ZN7Pokitto4Core8showLogoEv+0x64>
/home/manga/Projects/Pokitto/zboy-0.60/PokittoLib/POKITTO_CORE/PokittoCore.cpp:766
                if (i>=0xFF) { state++; i=0;}
     994:	2600      	movs	r6, #0
     996:	2502      	movs	r5, #2
     998:	e7a6      	b.n	8e8 <_ZN7Pokitto4Core8showLogoEv+0x1c>
     99a:	46c0      	nop			; (mov r8, r8)
     99c:	10000106 	.word	0x10000106
     9a0:	10001dbc 	.word	0x10001dbc
     9a4:	0000fb30 	.word	0x0000fb30
     9a8:	000003ff 	.word	0x000003ff
     9ac:	100018ec 	.word	0x100018ec

000009b0 <_ZN7Pokitto4Core5beginEv>:
_ZN7Pokitto4Core5beginEv():
/home/manga/Projects/Pokitto/zboy-0.60/PokittoLib/POKITTO_CORE/PokittoCore.cpp:599
void Core::begin() {
     9b0:	b5f8      	push	{r3, r4, r5, r6, r7, lr}
_ZN7Pokitto4Core4initEv():
/home/manga/Projects/Pokitto/zboy-0.60/PokittoLib/POKITTO_CORE/PokittoCore.cpp:699
    run_state = true;
     9b2:	2401      	movs	r4, #1
     9b4:	4b30      	ldr	r3, [pc, #192]	; (a78 <_ZN7Pokitto4Core5beginEv+0xc8>)
/home/manga/Projects/Pokitto/zboy-0.60/PokittoLib/POKITTO_CORE/PokittoCore.cpp:700
    display.enableDirectPrinting(false);
     9b6:	2000      	movs	r0, #0
/home/manga/Projects/Pokitto/zboy-0.60/PokittoLib/POKITTO_CORE/PokittoCore.cpp:699
    run_state = true;
     9b8:	701c      	strb	r4, [r3, #0]
/home/manga/Projects/Pokitto/zboy-0.60/PokittoLib/POKITTO_CORE/PokittoCore.cpp:700
    display.enableDirectPrinting(false);
     9ba:	f001 f929 	bl	1c10 <_ZN7Pokitto7Display20enableDirectPrintingEh>
/home/manga/Projects/Pokitto/zboy-0.60/PokittoLib/POKITTO_CORE/PokittoCore.cpp:701
    display.setFont(DEFAULT_FONT);
     9be:	482f      	ldr	r0, [pc, #188]	; (a7c <_ZN7Pokitto4Core5beginEv+0xcc>)
     9c0:	f001 f914 	bl	1bec <_ZN7Pokitto7Display7setFontEPKh>
/home/manga/Projects/Pokitto/zboy-0.60/PokittoLib/POKITTO_CORE/PokittoCore.cpp:702
    initClock();
     9c4:	f002 ff8a 	bl	38dc <_ZN7Pokitto4Core9initClockEv>
/home/manga/Projects/Pokitto/zboy-0.60/PokittoLib/POKITTO_CORE/PokittoCore.cpp:703
    initGPIO();
     9c8:	f002 ffb2 	bl	3930 <_ZN7Pokitto4Core8initGPIOEv>
_ZN7Pokitto4Core11initButtonsEv():
/home/manga/Projects/Pokitto/zboy-0.60/PokittoLib/POKITTO_CORE/PokittoCore.cpp:724
    Pokitto::initButtons();
     9cc:	f001 fe94 	bl	26f8 <_ZN7Pokitto11initButtonsEv>
_ZN7Pokitto4Core4initEv():
/home/manga/Projects/Pokitto/zboy-0.60/PokittoLib/POKITTO_CORE/PokittoCore.cpp:705
    initRandom();
     9d0:	f002 ff9e 	bl	3910 <_ZN7Pokitto4Core10initRandomEv>
_ZN7Pokitto4Core5beginEv():
/home/manga/Projects/Pokitto/zboy-0.60/PokittoLib/POKITTO_CORE/PokittoCore.cpp:602
    timePerFrame = POK_FRAMEDURATION;
     9d4:	22a6      	movs	r2, #166	; 0xa6
/home/manga/Projects/Pokitto/zboy-0.60/PokittoLib/POKITTO_CORE/PokittoCore.cpp:606
	startMenuTimer = 255;
     9d6:	26ff      	movs	r6, #255	; 0xff
/home/manga/Projects/Pokitto/zboy-0.60/PokittoLib/POKITTO_CORE/PokittoCore.cpp:602
    timePerFrame = POK_FRAMEDURATION;
     9d8:	4b29      	ldr	r3, [pc, #164]	; (a80 <_ZN7Pokitto4Core5beginEv+0xd0>)
/home/manga/Projects/Pokitto/zboy-0.60/PokittoLib/POKITTO_CORE/PokittoCore.cpp:606
	startMenuTimer = 255;
     9da:	4d2a      	ldr	r5, [pc, #168]	; (a84 <_ZN7Pokitto4Core5beginEv+0xd4>)
/home/manga/Projects/Pokitto/zboy-0.60/PokittoLib/POKITTO_CORE/PokittoCore.cpp:602
    timePerFrame = POK_FRAMEDURATION;
     9dc:	701a      	strb	r2, [r3, #0]
/home/manga/Projects/Pokitto/zboy-0.60/PokittoLib/POKITTO_CORE/PokittoCore.cpp:605
	frameEndMicros = 1;
     9de:	4b2a      	ldr	r3, [pc, #168]	; (a88 <_ZN7Pokitto4Core5beginEv+0xd8>)
_ZN7Pokitto4Core12readSettingsEv():
/home/manga/Projects/Pokitto/zboy-0.60/PokittoLib/POKITTO_CORE/PokittoCore.cpp:789
		sound.setMaxVol(VOLUME_HEADPHONE_MAX);
     9e0:	207f      	movs	r0, #127	; 0x7f
_ZN7Pokitto4Core5beginEv():
/home/manga/Projects/Pokitto/zboy-0.60/PokittoLib/POKITTO_CORE/PokittoCore.cpp:605
	frameEndMicros = 1;
     9e2:	601c      	str	r4, [r3, #0]
/home/manga/Projects/Pokitto/zboy-0.60/PokittoLib/POKITTO_CORE/PokittoCore.cpp:606
	startMenuTimer = 255;
     9e4:	702e      	strb	r6, [r5, #0]
_ZN7Pokitto4Core12readSettingsEv():
/home/manga/Projects/Pokitto/zboy-0.60/PokittoLib/POKITTO_CORE/PokittoCore.cpp:789
		sound.setMaxVol(VOLUME_HEADPHONE_MAX);
     9e6:	f001 fd51 	bl	248c <_ZN7Pokitto5Sound9setMaxVolEs>
/home/manga/Projects/Pokitto/zboy-0.60/PokittoLib/POKITTO_CORE/PokittoCore.cpp:790
		sound.globalVolume = VOLUME_STARTUP;
     9ea:	227f      	movs	r2, #127	; 0x7f
_ZN7Pokitto4Core5beginEv():
/home/manga/Projects/Pokitto/zboy-0.60/PokittoLib/POKITTO_CORE/PokittoCore.cpp:623
    display.directbgcolor = COLOR_BLACK;
     9ec:	2700      	movs	r7, #0
_ZN7Pokitto4Core12readSettingsEv():
/home/manga/Projects/Pokitto/zboy-0.60/PokittoLib/POKITTO_CORE/PokittoCore.cpp:790
		sound.globalVolume = VOLUME_STARTUP;
     9ee:	4b27      	ldr	r3, [pc, #156]	; (a8c <_ZN7Pokitto4Core5beginEv+0xdc>)
/home/manga/Projects/Pokitto/zboy-0.60/PokittoLib/POKITTO_CORE/PokittoCore.cpp:792
		startMenuTimer = START_MENU_TIMER;
     9f0:	702e      	strb	r6, [r5, #0]
/home/manga/Projects/Pokitto/zboy-0.60/PokittoLib/POKITTO_CORE/PokittoCore.cpp:790
		sound.globalVolume = VOLUME_STARTUP;
     9f2:	801a      	strh	r2, [r3, #0]
_ZN7Pokitto4Core5beginEv():
/home/manga/Projects/Pokitto/zboy-0.60/PokittoLib/POKITTO_CORE/PokittoCore.cpp:610
	backlight.begin();
     9f4:	f7ff fbea 	bl	1cc <_ZN7Pokitto9Backlight5beginEv>
/home/manga/Projects/Pokitto/zboy-0.60/PokittoLib/POKITTO_CORE/PokittoCore.cpp:611
	backlight.set(BACKLIGHT_MAX);
     9f8:	20ff      	movs	r0, #255	; 0xff
     9fa:	f7ff fbe9 	bl	1d0 <_ZN7Pokitto9Backlight3setEh>
/home/manga/Projects/Pokitto/zboy-0.60/PokittoLib/POKITTO_CORE/PokittoCore.cpp:612
	buttons.begin();
     9fe:	f7ff fbff 	bl	200 <_ZN7Pokitto7Buttons5beginEv>
/home/manga/Projects/Pokitto/zboy-0.60/PokittoLib/POKITTO_CORE/PokittoCore.cpp:613
	buttons.update();
     a02:	f7ff fc01 	bl	208 <_ZN7Pokitto7Buttons6updateEv>
/home/manga/Projects/Pokitto/zboy-0.60/PokittoLib/POKITTO_CORE/PokittoCore.cpp:614
	battery.begin();
     a06:	f7ff fbe5 	bl	1d4 <_ZN7Pokitto7Battery5beginEv>
/home/manga/Projects/Pokitto/zboy-0.60/PokittoLib/POKITTO_CORE/PokittoCore.cpp:615
	display.begin();
     a0a:	f000 f941 	bl	c90 <_ZN7Pokitto7Display5beginEv>
/home/manga/Projects/Pokitto/zboy-0.60/PokittoLib/POKITTO_CORE/PokittoCore.cpp:618
        showLogo();
     a0e:	f7ff ff5d 	bl	8cc <_ZN7Pokitto4Core8showLogoEv>
/home/manga/Projects/Pokitto/zboy-0.60/PokittoLib/POKITTO_CORE/PokittoCore.cpp:622
	display.enableDirectPrinting(true);
     a12:	2001      	movs	r0, #1
     a14:	f001 f8fc 	bl	1c10 <_ZN7Pokitto7Display20enableDirectPrintingEh>
/home/manga/Projects/Pokitto/zboy-0.60/PokittoLib/POKITTO_CORE/PokittoCore.cpp:623
    display.directbgcolor = COLOR_BLACK;
     a18:	4e1d      	ldr	r6, [pc, #116]	; (a90 <_ZN7Pokitto4Core5beginEv+0xe0>)
     a1a:	8037      	strh	r7, [r6, #0]
/home/manga/Projects/Pokitto/zboy-0.60/PokittoLib/POKITTO_CORE/PokittoCore.cpp:624
    display.clearLCD();
     a1c:	f000 f926 	bl	c6c <_ZN7Pokitto7Display8clearLCDEv>
/home/manga/Projects/Pokitto/zboy-0.60/PokittoLib/POKITTO_CORE/PokittoCore.cpp:625
    display.setFont(fntC64UIGfx);
     a20:	4d1c      	ldr	r5, [pc, #112]	; (a94 <_ZN7Pokitto4Core5beginEv+0xe4>)
     a22:	0028      	movs	r0, r5
     a24:	f001 f8e2 	bl	1bec <_ZN7Pokitto7Display7setFontEPKh>
/home/manga/Projects/Pokitto/zboy-0.60/PokittoLib/POKITTO_CORE/PokittoCore.cpp:627
    display.enableDirectPrinting(true);
     a28:	2001      	movs	r0, #1
     a2a:	f001 f8f1 	bl	1c10 <_ZN7Pokitto7Display20enableDirectPrintingEh>
/home/manga/Projects/Pokitto/zboy-0.60/PokittoLib/POKITTO_CORE/PokittoCore.cpp:629
    display.directcolor = COLOR_GREEN;
     a2e:	22fc      	movs	r2, #252	; 0xfc
     a30:	4b19      	ldr	r3, [pc, #100]	; (a98 <_ZN7Pokitto4Core5beginEv+0xe8>)
     a32:	00d2      	lsls	r2, r2, #3
     a34:	801a      	strh	r2, [r3, #0]
/home/manga/Projects/Pokitto/zboy-0.60/PokittoLib/POKITTO_CORE/PokittoCore.cpp:628
    display.directbgcolor = COLOR_BLACK;
     a36:	8037      	strh	r7, [r6, #0]
/home/manga/Projects/Pokitto/zboy-0.60/PokittoLib/POKITTO_CORE/PokittoCore.cpp:630
    display.clearLCD();
     a38:	f000 f918 	bl	c6c <_ZN7Pokitto7Display8clearLCDEv>
/home/manga/Projects/Pokitto/zboy-0.60/PokittoLib/POKITTO_CORE/PokittoCore.cpp:631
    display.setFont(fntC64UIGfx);
     a3c:	0028      	movs	r0, r5
     a3e:	f001 f8d5 	bl	1bec <_ZN7Pokitto7Display7setFontEPKh>
/home/manga/Projects/Pokitto/zboy-0.60/PokittoLib/POKITTO_CORE/PokittoCore.cpp:632
    display.adjustCharStep=0;
     a42:	2300      	movs	r3, #0
     a44:	4e15      	ldr	r6, [pc, #84]	; (a9c <_ZN7Pokitto4Core5beginEv+0xec>)
/home/manga/Projects/Pokitto/zboy-0.60/PokittoLib/POKITTO_CORE/PokittoCore.cpp:633
    display.adjustLineStep=1;
     a46:	4d16      	ldr	r5, [pc, #88]	; (aa0 <_ZN7Pokitto4Core5beginEv+0xf0>)
/home/manga/Projects/Pokitto/zboy-0.60/PokittoLib/POKITTO_CORE/PokittoCore.cpp:632
    display.adjustCharStep=0;
     a48:	7033      	strb	r3, [r6, #0]
/home/manga/Projects/Pokitto/zboy-0.60/PokittoLib/POKITTO_CORE/PokittoCore.cpp:633
    display.adjustLineStep=1;
     a4a:	702c      	strb	r4, [r5, #0]
/home/manga/Projects/Pokitto/zboy-0.60/PokittoLib/POKITTO_CORE/PokittoCore.cpp:640
    askLoader();
     a4c:	f7ff fe82 	bl	754 <_ZN7Pokitto4Core9askLoaderEv>
/home/manga/Projects/Pokitto/zboy-0.60/PokittoLib/POKITTO_CORE/PokittoCore.cpp:645
	sound.setMaxVol(VOLUME_SPEAKER_MAX);
     a50:	20ff      	movs	r0, #255	; 0xff
     a52:	f001 fd1b 	bl	248c <_ZN7Pokitto5Sound9setMaxVolEs>
/home/manga/Projects/Pokitto/zboy-0.60/PokittoLib/POKITTO_CORE/PokittoCore.cpp:646
	sound.setVolume(VOLUME_SPEAKER_MAX);
     a56:	20ff      	movs	r0, #255	; 0xff
     a58:	f001 fd2e 	bl	24b8 <_ZN7Pokitto5Sound9setVolumeEs>
/home/manga/Projects/Pokitto/zboy-0.60/PokittoLib/POKITTO_CORE/PokittoCore.cpp:661
	display.enableDirectPrinting(false);
     a5c:	2000      	movs	r0, #0
     a5e:	f001 f8d7 	bl	1c10 <_ZN7Pokitto7Display20enableDirectPrintingEh>
/home/manga/Projects/Pokitto/zboy-0.60/PokittoLib/POKITTO_CORE/PokittoCore.cpp:664
	display.fontSize=1;
     a62:	4b10      	ldr	r3, [pc, #64]	; (aa4 <_ZN7Pokitto4Core5beginEv+0xf4>)
/home/manga/Projects/Pokitto/zboy-0.60/PokittoLib/POKITTO_CORE/PokittoCore.cpp:669
	display.setFont(fontC64);
     a64:	4810      	ldr	r0, [pc, #64]	; (aa8 <_ZN7Pokitto4Core5beginEv+0xf8>)
/home/manga/Projects/Pokitto/zboy-0.60/PokittoLib/POKITTO_CORE/PokittoCore.cpp:664
	display.fontSize=1;
     a66:	701c      	strb	r4, [r3, #0]
/home/manga/Projects/Pokitto/zboy-0.60/PokittoLib/POKITTO_CORE/PokittoCore.cpp:665
	display.textWrap=true;
     a68:	4b10      	ldr	r3, [pc, #64]	; (aac <_ZN7Pokitto4Core5beginEv+0xfc>)
/home/manga/Projects/Pokitto/zboy-0.60/PokittoLib/POKITTO_CORE/PokittoCore.cpp:662
	display.adjustCharStep=1;
     a6a:	7034      	strb	r4, [r6, #0]
/home/manga/Projects/Pokitto/zboy-0.60/PokittoLib/POKITTO_CORE/PokittoCore.cpp:663
	display.adjustLineStep=1;
     a6c:	702c      	strb	r4, [r5, #0]
/home/manga/Projects/Pokitto/zboy-0.60/PokittoLib/POKITTO_CORE/PokittoCore.cpp:665
	display.textWrap=true;
     a6e:	701c      	strb	r4, [r3, #0]
/home/manga/Projects/Pokitto/zboy-0.60/PokittoLib/POKITTO_CORE/PokittoCore.cpp:669
	display.setFont(fontC64);
     a70:	f001 f8bc 	bl	1bec <_ZN7Pokitto7Display7setFontEPKh>
/home/manga/Projects/Pokitto/zboy-0.60/PokittoLib/POKITTO_CORE/PokittoCore.cpp:696
}
     a74:	bdf8      	pop	{r3, r4, r5, r6, r7, pc}
     a76:	46c0      	nop			; (mov r8, r8)
     a78:	100001ed 	.word	0x100001ed
     a7c:	0000ee88 	.word	0x0000ee88
     a80:	100001e2 	.word	0x100001e2
     a84:	100001e8 	.word	0x100001e8
     a88:	100001e4 	.word	0x100001e4
     a8c:	10001b72 	.word	0x10001b72
     a90:	100018ec 	.word	0x100018ec
     a94:	0000f4f0 	.word	0x0000f4f0
     a98:	10000106 	.word	0x10000106
     a9c:	10000108 	.word	0x10000108
     aa0:	10000109 	.word	0x10000109
     aa4:	10000112 	.word	0x10000112
     aa8:	0000f18c 	.word	0x0000f18c
     aac:	10000113 	.word	0x10000113

00000ab0 <_GLOBAL__sub_I_selectedfile>:
_GLOBAL__sub_I_selectedfile():
/home/manga/Projects/Pokitto/zboy-0.60/PokittoLib/POKITTO_CORE/PokittoCore.cpp:1398
        return true;
      }
    }
  }
  return false;
}
     ab0:	b510      	push	{r4, lr}
__static_initialization_and_destruction_0():
/home/manga/Projects/Pokitto/zboy-0.60/PokittoLib/POKITTO_CORE/PokittoCore.cpp:154
Display Core::display;
     ab2:	4802      	ldr	r0, [pc, #8]	; (abc <_GLOBAL__sub_I_selectedfile+0xc>)
     ab4:	f000 f88e 	bl	bd4 <_ZN7Pokitto7DisplayC1Ev>
_GLOBAL__sub_I_selectedfile():
/home/manga/Projects/Pokitto/zboy-0.60/PokittoLib/POKITTO_CORE/PokittoCore.cpp:1398
}
     ab8:	bd10      	pop	{r4, pc}
     aba:	46c0      	nop			; (mov r8, r8)
     abc:	100001ec 	.word	0x100001ec

00000ac0 <_ZN4mbed3SPID1Ev>:
_ZN4mbed3SPID2Ev():
/home/manga/Projects/Pokitto/zboy-0.60/./PokittoLib/mbed-pokitto/api/SPI.h:223

#endif

public:
    virtual ~SPI() {
    }
     ac0:	4770      	bx	lr
     ac2:	46c0      	nop			; (mov r8, r8)

00000ac4 <_ZN4mbed3SPID0Ev>:
_ZN4mbed3SPID0Ev():
/home/manga/Projects/Pokitto/zboy-0.60/./PokittoLib/mbed-pokitto/api/SPI.h:222
    virtual ~SPI() {
     ac4:	b510      	push	{r4, lr}
     ac6:	0004      	movs	r4, r0
/home/manga/Projects/Pokitto/zboy-0.60/./PokittoLib/mbed-pokitto/api/SPI.h:223
    }
     ac8:	f004 f826 	bl	4b18 <_ZdlPv>
     acc:	0020      	movs	r0, r4
     ace:	bd10      	pop	{r4, pc}

00000ad0 <_Z8fileOpenPcc>:
_Z8fileOpenPcc():
/home/manga/Projects/Pokitto/zboy-0.60/PokittoLib/POKITTO_CORE/PokittoDisk.cpp:203
int fileOK() {
    if (filemode != FILE_MODE_FAILED) return 1;
    return 0;
}

uint8_t fileOpen(char* buffer, char fmode) {
     ad0:	b570      	push	{r4, r5, r6, lr}
/home/manga/Projects/Pokitto/zboy-0.60/PokittoLib/POKITTO_CORE/PokittoDisk.cpp:205
    int err;
    if (filemode == FILE_MODE_UNINITIALIZED) {
     ad2:	4c11      	ldr	r4, [pc, #68]	; (b18 <_Z8fileOpenPcc+0x48>)
/home/manga/Projects/Pokitto/zboy-0.60/PokittoLib/POKITTO_CORE/PokittoDisk.cpp:203
uint8_t fileOpen(char* buffer, char fmode) {
     ad4:	0005      	movs	r5, r0
/home/manga/Projects/Pokitto/zboy-0.60/PokittoLib/POKITTO_CORE/PokittoDisk.cpp:205
    if (filemode == FILE_MODE_UNINITIALIZED) {
     ad6:	7823      	ldrb	r3, [r4, #0]
/home/manga/Projects/Pokitto/zboy-0.60/PokittoLib/POKITTO_CORE/PokittoDisk.cpp:203
uint8_t fileOpen(char* buffer, char fmode) {
     ad8:	000e      	movs	r6, r1
/home/manga/Projects/Pokitto/zboy-0.60/PokittoLib/POKITTO_CORE/PokittoDisk.cpp:205
    if (filemode == FILE_MODE_UNINITIALIZED) {
     ada:	2b10      	cmp	r3, #16
     adc:	d009      	beq.n	af2 <_Z8fileOpenPcc+0x22>
/home/manga/Projects/Pokitto/zboy-0.60/PokittoLib/POKITTO_CORE/PokittoDisk.cpp:211
        int a = pf_mount(&fs);
        if (a) return 1; // 1 means error in this context
    }

    filemode = fmode;
    err = PFFS::pf_open(buffer);
     ade:	0028      	movs	r0, r5
/home/manga/Projects/Pokitto/zboy-0.60/PokittoLib/POKITTO_CORE/PokittoDisk.cpp:210
    filemode = fmode;
     ae0:	7026      	strb	r6, [r4, #0]
/home/manga/Projects/Pokitto/zboy-0.60/PokittoLib/POKITTO_CORE/PokittoDisk.cpp:211
    err = PFFS::pf_open(buffer);
     ae2:	f003 fbd1 	bl	4288 <_ZN4PFFS7pf_openEPKc>
/home/manga/Projects/Pokitto/zboy-0.60/PokittoLib/POKITTO_CORE/PokittoDisk.cpp:212
    if (err==0) {
     ae6:	2800      	cmp	r0, #0
     ae8:	d010      	beq.n	b0c <_Z8fileOpenPcc+0x3c>
/home/manga/Projects/Pokitto/zboy-0.60/PokittoLib/POKITTO_CORE/PokittoDisk.cpp:217
            strcpy(currentfile,(const char*)buffer);
            return 0; // 0 means all clear
    }
    // file open failed
    filemode = FILE_MODE_FAILED;
     aea:	2308      	movs	r3, #8
/home/manga/Projects/Pokitto/zboy-0.60/PokittoLib/POKITTO_CORE/PokittoDisk.cpp:218
    return 1; // 1 means failed
     aec:	2001      	movs	r0, #1
/home/manga/Projects/Pokitto/zboy-0.60/PokittoLib/POKITTO_CORE/PokittoDisk.cpp:217
    filemode = FILE_MODE_FAILED;
     aee:	7023      	strb	r3, [r4, #0]
/home/manga/Projects/Pokitto/zboy-0.60/PokittoLib/POKITTO_CORE/PokittoDisk.cpp:219
}
     af0:	bd70      	pop	{r4, r5, r6, pc}
/home/manga/Projects/Pokitto/zboy-0.60/PokittoLib/POKITTO_CORE/PokittoDisk.cpp:206
        int a = pf_mount(&fs);
     af2:	480a      	ldr	r0, [pc, #40]	; (b1c <_Z8fileOpenPcc+0x4c>)
     af4:	f018 fa86 	bl	19004 <_ZN4PFFS8pf_mountEPNS_7_FATFS_E>
     af8:	0003      	movs	r3, r0
/home/manga/Projects/Pokitto/zboy-0.60/PokittoLib/POKITTO_CORE/PokittoDisk.cpp:207
        if (a) return 1; // 1 means error in this context
     afa:	2001      	movs	r0, #1
     afc:	2b00      	cmp	r3, #0
     afe:	d1f7      	bne.n	af0 <_Z8fileOpenPcc+0x20>
/home/manga/Projects/Pokitto/zboy-0.60/PokittoLib/POKITTO_CORE/PokittoDisk.cpp:211
    err = PFFS::pf_open(buffer);
     b00:	0028      	movs	r0, r5
/home/manga/Projects/Pokitto/zboy-0.60/PokittoLib/POKITTO_CORE/PokittoDisk.cpp:210
    filemode = fmode;
     b02:	7026      	strb	r6, [r4, #0]
/home/manga/Projects/Pokitto/zboy-0.60/PokittoLib/POKITTO_CORE/PokittoDisk.cpp:211
    err = PFFS::pf_open(buffer);
     b04:	f003 fbc0 	bl	4288 <_ZN4PFFS7pf_openEPKc>
/home/manga/Projects/Pokitto/zboy-0.60/PokittoLib/POKITTO_CORE/PokittoDisk.cpp:212
    if (err==0) {
     b08:	2800      	cmp	r0, #0
     b0a:	d1ee      	bne.n	aea <_Z8fileOpenPcc+0x1a>
/home/manga/Projects/Pokitto/zboy-0.60/PokittoLib/POKITTO_CORE/PokittoDisk.cpp:213
            strcpy(currentfile,(const char*)buffer);
     b0c:	0029      	movs	r1, r5
     b0e:	4804      	ldr	r0, [pc, #16]	; (b20 <_Z8fileOpenPcc+0x50>)
     b10:	f00d f9a2 	bl	de58 <strcpy>
/home/manga/Projects/Pokitto/zboy-0.60/PokittoLib/POKITTO_CORE/PokittoDisk.cpp:214
            return 0; // 0 means all clear
     b14:	2000      	movs	r0, #0
     b16:	e7eb      	b.n	af0 <_Z8fileOpenPcc+0x20>
     b18:	10000104 	.word	0x10000104
     b1c:	10000230 	.word	0x10000230
     b20:	100001f0 	.word	0x100001f0

00000b24 <_Z13fileReadBytesPht>:
_Z13fileReadBytesPht():
/home/manga/Projects/Pokitto/zboy-0.60/PokittoLib/POKITTO_CORE/PokittoDisk.cpp:245
    PFFS::WORD bw;
    PFFS::pf_write((const void*)&b, n, &bw);
    PFFS::pf_write(0, 0, &bw);
}

uint16_t fileReadBytes(uint8_t * b, uint16_t n) {
     b24:	b510      	push	{r4, lr}
     b26:	b082      	sub	sp, #8
/home/manga/Projects/Pokitto/zboy-0.60/PokittoLib/POKITTO_CORE/PokittoDisk.cpp:247
    PFFS::WORD br;
    PFFS::pf_read(b, n, &br);    /* Read data to the buff[] */
     b28:	466b      	mov	r3, sp
     b2a:	1d9c      	adds	r4, r3, #6
     b2c:	0022      	movs	r2, r4
     b2e:	f003 fbdb 	bl	42e8 <_ZN4PFFS7pf_readEPvtPt>
/home/manga/Projects/Pokitto/zboy-0.60/PokittoLib/POKITTO_CORE/PokittoDisk.cpp:248
    return br;             /* Return number of bytes read */
     b32:	8820      	ldrh	r0, [r4, #0]
/home/manga/Projects/Pokitto/zboy-0.60/PokittoLib/POKITTO_CORE/PokittoDisk.cpp:249
}
     b34:	b002      	add	sp, #8
     b36:	bd10      	pop	{r4, pc}

00000b38 <_Z16fileSeekRelativel>:
_Z16fileSeekRelativel():
/home/manga/Projects/Pokitto/zboy-0.60/PokittoLib/POKITTO_CORE/PokittoDisk.cpp:255

void fileSeekAbsolute(long n) {
    res = PFFS::pf_lseek(n);
}

void fileSeekRelative(long n) {
     b38:	4b07      	ldr	r3, [pc, #28]	; (b58 <_Z16fileSeekRelativel+0x20>)
     b3a:	b510      	push	{r4, lr}
     b3c:	69db      	ldr	r3, [r3, #28]
/home/manga/Projects/Pokitto/zboy-0.60/PokittoLib/POKITTO_CORE/PokittoDisk.cpp:256
    if (n<0) if (fs.fptr < -n) n=-fs.fptr;
     b3e:	2800      	cmp	r0, #0
     b40:	db05      	blt.n	b4e <_Z16fileSeekRelativel+0x16>
/home/manga/Projects/Pokitto/zboy-0.60/PokittoLib/POKITTO_CORE/PokittoDisk.cpp:258
    else if (n>0) if (fs.fptr+n > fs.fsize) n=fs.fsize-fs.fptr;
    res = PFFS::pf_lseek(fs.fptr + n);
     b42:	18c0      	adds	r0, r0, r3
     b44:	f003 fc4e 	bl	43e4 <_ZN4PFFS8pf_lseekEm>
     b48:	4b04      	ldr	r3, [pc, #16]	; (b5c <_Z16fileSeekRelativel+0x24>)
     b4a:	7018      	strb	r0, [r3, #0]
/home/manga/Projects/Pokitto/zboy-0.60/PokittoLib/POKITTO_CORE/PokittoDisk.cpp:259
}
     b4c:	bd10      	pop	{r4, pc}
/home/manga/Projects/Pokitto/zboy-0.60/PokittoLib/POKITTO_CORE/PokittoDisk.cpp:256 (discriminator 1)
    if (n<0) if (fs.fptr < -n) n=-fs.fptr;
     b4e:	4242      	negs	r2, r0
     b50:	429a      	cmp	r2, r3
     b52:	d9f6      	bls.n	b42 <_Z16fileSeekRelativel+0xa>
/home/manga/Projects/Pokitto/zboy-0.60/PokittoLib/POKITTO_CORE/PokittoDisk.cpp:256 (discriminator 2)
     b54:	4258      	negs	r0, r3
     b56:	e7f4      	b.n	b42 <_Z16fileSeekRelativel+0xa>
     b58:	10000230 	.word	0x10000230
     b5c:	10000260 	.word	0x10000260

00000b60 <_Z10fileRewindv>:
_Z10fileRewindv():
/home/manga/Projects/Pokitto/zboy-0.60/PokittoLib/POKITTO_CORE/PokittoDisk.cpp:261

void fileRewind() {
     b60:	b510      	push	{r4, lr}
/home/manga/Projects/Pokitto/zboy-0.60/PokittoLib/POKITTO_CORE/PokittoDisk.cpp:262
  res = PFFS::pf_lseek(0);
     b62:	2000      	movs	r0, #0
     b64:	f003 fc3e 	bl	43e4 <_ZN4PFFS8pf_lseekEm>
     b68:	4b01      	ldr	r3, [pc, #4]	; (b70 <_Z10fileRewindv+0x10>)
     b6a:	7018      	strb	r0, [r3, #0]
/home/manga/Projects/Pokitto/zboy-0.60/PokittoLib/POKITTO_CORE/PokittoDisk.cpp:263
}
     b6c:	bd10      	pop	{r4, pc}
     b6e:	46c0      	nop			; (mov r8, r8)
     b70:	10000260 	.word	0x10000260

00000b74 <_Z7fileEndv>:
_Z7fileEndv():
/home/manga/Projects/Pokitto/zboy-0.60/PokittoLib/POKITTO_CORE/PokittoDisk.cpp:266

void fileEnd() {
  res = PFFS::pf_lseek(fs.fsize);
     b74:	4b03      	ldr	r3, [pc, #12]	; (b84 <_Z7fileEndv+0x10>)
/home/manga/Projects/Pokitto/zboy-0.60/PokittoLib/POKITTO_CORE/PokittoDisk.cpp:265
void fileEnd() {
     b76:	b510      	push	{r4, lr}
/home/manga/Projects/Pokitto/zboy-0.60/PokittoLib/POKITTO_CORE/PokittoDisk.cpp:266
  res = PFFS::pf_lseek(fs.fsize);
     b78:	6a18      	ldr	r0, [r3, #32]
     b7a:	f003 fc33 	bl	43e4 <_ZN4PFFS8pf_lseekEm>
     b7e:	4b02      	ldr	r3, [pc, #8]	; (b88 <_Z7fileEndv+0x14>)
     b80:	7018      	strb	r0, [r3, #0]
/home/manga/Projects/Pokitto/zboy-0.60/PokittoLib/POKITTO_CORE/PokittoDisk.cpp:267
}
     b82:	bd10      	pop	{r4, pc}
     b84:	10000230 	.word	0x10000230
     b88:	10000260 	.word	0x10000260

00000b8c <_Z15fileGetPositionv>:
_Z15fileGetPositionv():
/home/manga/Projects/Pokitto/zboy-0.60/PokittoLib/POKITTO_CORE/PokittoDisk.cpp:270

long int fileGetPosition() {
    return fs.fptr;
     b8c:	4b01      	ldr	r3, [pc, #4]	; (b94 <_Z15fileGetPositionv+0x8>)
     b8e:	69d8      	ldr	r0, [r3, #28]
/home/manga/Projects/Pokitto/zboy-0.60/PokittoLib/POKITTO_CORE/PokittoDisk.cpp:271
}
     b90:	4770      	bx	lr
     b92:	46c0      	nop			; (mov r8, r8)
     b94:	10000230 	.word	0x10000230

00000b98 <_GLOBAL__sub_I_res>:
_GLOBAL__sub_I_res():
/home/manga/Projects/Pokitto/zboy-0.60/PokittoLib/POKITTO_CORE/PokittoDisk.cpp:50
SPI device(CONNECT_MOSI,CONNECT_MISO,CONNECT_SCK);
     b98:	2301      	movs	r3, #1
     b9a:	2281      	movs	r2, #129	; 0x81
/home/manga/Projects/Pokitto/zboy-0.60/PokittoLib/POKITTO_CORE/PokittoDisk.cpp:309
}

int dirUp() {

return 0;
}
     b9c:	b510      	push	{r4, lr}
/home/manga/Projects/Pokitto/zboy-0.60/PokittoLib/POKITTO_CORE/PokittoDisk.cpp:50
SPI device(CONNECT_MOSI,CONNECT_MISO,CONNECT_SCK);
     b9e:	4c08      	ldr	r4, [pc, #32]	; (bc0 <_GLOBAL__sub_I_res+0x28>)
/home/manga/Projects/Pokitto/zboy-0.60/PokittoLib/POKITTO_CORE/PokittoDisk.cpp:309
}
     ba0:	b082      	sub	sp, #8
/home/manga/Projects/Pokitto/zboy-0.60/PokittoLib/POKITTO_CORE/PokittoDisk.cpp:50
SPI device(CONNECT_MOSI,CONNECT_MISO,CONNECT_SCK);
     ba2:	425b      	negs	r3, r3
     ba4:	9300      	str	r3, [sp, #0]
     ba6:	0152      	lsls	r2, r2, #5
     ba8:	4b06      	ldr	r3, [pc, #24]	; (bc4 <_GLOBAL__sub_I_res+0x2c>)
     baa:	4907      	ldr	r1, [pc, #28]	; (bc8 <_GLOBAL__sub_I_res+0x30>)
     bac:	0020      	movs	r0, r4
     bae:	f003 fe11 	bl	47d4 <_ZN4mbed3SPIC1E7PinNameS1_S1_S1_>
     bb2:	4a06      	ldr	r2, [pc, #24]	; (bcc <_GLOBAL__sub_I_res+0x34>)
     bb4:	4906      	ldr	r1, [pc, #24]	; (bd0 <_GLOBAL__sub_I_res+0x38>)
     bb6:	0020      	movs	r0, r4
     bb8:	f003 ffac 	bl	4b14 <__aeabi_atexit>
/home/manga/Projects/Pokitto/zboy-0.60/PokittoLib/POKITTO_CORE/PokittoDisk.cpp:309
}
     bbc:	b002      	add	sp, #8
     bbe:	bd10      	pop	{r4, pc}
     bc0:	10000200 	.word	0x10000200
     bc4:	00000c18 	.word	0x00000c18
     bc8:	00001224 	.word	0x00001224
     bcc:	10000100 	.word	0x10000100
     bd0:	00000ac1 	.word	0x00000ac1

00000bd4 <_ZN7Pokitto7DisplayC1Ev>:
_ZN7Pokitto7DisplayC2Ev():
/home/manga/Projects/Pokitto/zboy-0.60/PokittoLib/POKITTO_CORE/PokittoDisplay.cpp:1505
            uint8_t r_val = *(bitmap + j * byteWidth + byteNum);
            uint8_t g_val = *(bitmap + bitFrame + j * byteWidth + byteNum);
            uint8_t b_val = *(bitmap + (bitFrame<<1) + j * byteWidth + byteNum);
            for (bitcount=0; bitcount<8; bitcount++) {
                uint8_t col = (r_val&0x1) | ((g_val&0x1)<<1) | ((b_val&0x1)<<2);
                r_val >>= 1; g_val >>= 1; b_val >>= 1;
     bd4:	4b16      	ldr	r3, [pc, #88]	; (c30 <_ZN7Pokitto7DisplayC1Ev+0x5c>)
     bd6:	4a17      	ldr	r2, [pc, #92]	; (c34 <_ZN7Pokitto7DisplayC1Ev+0x60>)
     bd8:	b510      	push	{r4, lr}
/home/manga/Projects/Pokitto/zboy-0.60/PokittoLib/POKITTO_CORE/PokittoDisplay.cpp:623
    if (col==invisiblecolor) return; // do not draw transparent pixels
     bda:	0004      	movs	r4, r0
_ZN7Pokitto7Display17setDefaultPaletteEv():
/home/manga/Projects/Pokitto/zboy-0.60/PokittoLib/POKITTO_CORE/PokittoDisplay.cpp:623
     bdc:	4816      	ldr	r0, [pc, #88]	; (c38 <_ZN7Pokitto7DisplayC1Ev+0x64>)
_ZN7Pokitto7DisplayC2Ev():
/home/manga/Projects/Pokitto/zboy-0.60/PokittoLib/POKITTO_CORE/PokittoDisplay.cpp:624
    if ((uint16_t)x >= width || (uint16_t)y >= height) return;
     bde:	601a      	str	r2, [r3, #0]
_ZN7Pokitto7Display17setDefaultPaletteEv():
/home/manga/Projects/Pokitto/zboy-0.60/PokittoLib/POKITTO_CORE/PokittoDisplay.cpp:624
     be0:	f001 fb32 	bl	2248 <_ZN7Pokitto7Display14loadRGBPaletteEPKh>
_ZN7Pokitto7DisplayC2Ev():
/home/manga/Projects/Pokitto/zboy-0.60/PokittoLib/POKITTO_CORE/PokittoDisplay.cpp:624
     be4:	2201      	movs	r2, #1
     be6:	4b15      	ldr	r3, [pc, #84]	; (c3c <_ZN7Pokitto7DisplayC1Ev+0x68>)
_ZN7Pokitto7Display7setFontEPKh():
/home/manga/Projects/Pokitto/zboy-0.60/PokittoLib/POKITTO_CORE/PokittoDisplay.cpp:624
     be8:	4915      	ldr	r1, [pc, #84]	; (c40 <_ZN7Pokitto7DisplayC1Ev+0x6c>)
_ZN7Pokitto7DisplayC2Ev():
/home/manga/Projects/Pokitto/zboy-0.60/PokittoLib/POKITTO_CORE/PokittoDisplay.cpp:624
     bea:	701a      	strb	r2, [r3, #0]
     bec:	4b15      	ldr	r3, [pc, #84]	; (c44 <_ZN7Pokitto7DisplayC1Ev+0x70>)
     bee:	32db      	adds	r2, #219	; 0xdb
     bf0:	801a      	strh	r2, [r3, #0]
     bf2:	4b15      	ldr	r3, [pc, #84]	; (c48 <_ZN7Pokitto7DisplayC1Ev+0x74>)
     bf4:	3a2c      	subs	r2, #44	; 0x2c
     bf6:	801a      	strh	r2, [r3, #0]
_ZN7Pokitto7Display7setFontEPKh():
/home/manga/Projects/Pokitto/zboy-0.60/PokittoLib/POKITTO_CORE/PokittoDisplay.cpp:624
     bf8:	4b14      	ldr	r3, [pc, #80]	; (c4c <_ZN7Pokitto7DisplayC1Ev+0x78>)
     bfa:	4a15      	ldr	r2, [pc, #84]	; (c50 <_ZN7Pokitto7DisplayC1Ev+0x7c>)
_ZN7Pokitto7DisplayC2Ev():
/home/manga/Projects/Pokitto/zboy-0.60/PokittoLib/POKITTO_CORE/PokittoDisplay.cpp:624
     bfc:	0020      	movs	r0, r4
_ZN7Pokitto7Display7setFontEPKh():
/home/manga/Projects/Pokitto/zboy-0.60/PokittoLib/POKITTO_CORE/PokittoDisplay.cpp:653
        if (col) {
     bfe:	6013      	str	r3, [r2, #0]
     c00:	781a      	ldrb	r2, [r3, #0]
     c02:	3201      	adds	r2, #1
     c04:	700a      	strb	r2, [r1, #0]
     c06:	785b      	ldrb	r3, [r3, #1]
/home/manga/Projects/Pokitto/zboy-0.60/PokittoLib/POKITTO_CORE/PokittoDisplay.cpp:656
        uint16_t i = y*(width>>2) + (x>>2);
     c08:	4a12      	ldr	r2, [pc, #72]	; (c54 <_ZN7Pokitto7DisplayC1Ev+0x80>)
     c0a:	3301      	adds	r3, #1
     c0c:	7013      	strb	r3, [r2, #0]
_ZN7Pokitto7DisplayC2Ev():
/home/manga/Projects/Pokitto/zboy-0.60/PokittoLib/POKITTO_CORE/PokittoDisplay.cpp:656
     c0e:	2211      	movs	r2, #17
/home/manga/Projects/Pokitto/zboy-0.60/PokittoLib/POKITTO_CORE/PokittoDisplay.cpp:661
        else if (column==1) pixel = (pixel&0xCF)|(col<<4); // bits 4-5
     c10:	4b11      	ldr	r3, [pc, #68]	; (c58 <_ZN7Pokitto7DisplayC1Ev+0x84>)
/home/manga/Projects/Pokitto/zboy-0.60/PokittoLib/POKITTO_CORE/PokittoDisplay.cpp:656
        uint16_t i = y*(width>>2) + (x>>2);
     c12:	2102      	movs	r1, #2
/home/manga/Projects/Pokitto/zboy-0.60/PokittoLib/POKITTO_CORE/PokittoDisplay.cpp:657
        uint8_t pixel = m_scrbuf[i];
     c14:	801a      	strh	r2, [r3, #0]
/home/manga/Projects/Pokitto/zboy-0.60/PokittoLib/POKITTO_CORE/PokittoDisplay.cpp:656
        uint16_t i = y*(width>>2) + (x>>2);
     c16:	2300      	movs	r3, #0
/home/manga/Projects/Pokitto/zboy-0.60/PokittoLib/POKITTO_CORE/PokittoDisplay.cpp:657
        uint8_t pixel = m_scrbuf[i];
     c18:	4a10      	ldr	r2, [pc, #64]	; (c5c <_ZN7Pokitto7DisplayC1Ev+0x88>)
     c1a:	8013      	strh	r3, [r2, #0]
     c1c:	4a10      	ldr	r2, [pc, #64]	; (c60 <_ZN7Pokitto7DisplayC1Ev+0x8c>)
     c1e:	7011      	strb	r1, [r2, #0]
     c20:	4a10      	ldr	r2, [pc, #64]	; (c64 <_ZN7Pokitto7DisplayC1Ev+0x90>)
/home/manga/Projects/Pokitto/zboy-0.60/PokittoLib/POKITTO_CORE/PokittoDisplay.cpp:661
        else if (column==1) pixel = (pixel&0xCF)|(col<<4); // bits 4-5
     c22:	6013      	str	r3, [r2, #0]
     c24:	4a10      	ldr	r2, [pc, #64]	; (c68 <_ZN7Pokitto7DisplayC1Ev+0x94>)
     c26:	6013      	str	r3, [r2, #0]
     c28:	6193      	str	r3, [r2, #24]
     c2a:	6313      	str	r3, [r2, #48]	; 0x30
/home/manga/Projects/Pokitto/zboy-0.60/PokittoLib/POKITTO_CORE/PokittoDisplay.cpp:663
        m_scrbuf[i] = pixel;
     c2c:	6493      	str	r3, [r2, #72]	; 0x48
/home/manga/Projects/Pokitto/zboy-0.60/PokittoLib/POKITTO_CORE/PokittoDisplay.cpp:1504
                uint8_t col = (r_val&0x1) | ((g_val&0x1)<<1) | ((b_val&0x1)<<2);
     c2e:	bd10      	pop	{r4, pc}
     c30:	10001b08 	.word	0x10001b08
     c34:	1000026c 	.word	0x1000026c
     c38:	0000f990 	.word	0x0000f990
     c3c:	10001900 	.word	0x10001900
     c40:	10001b0c 	.word	0x10001b0c
/home/manga/Projects/Pokitto/zboy-0.60/PokittoLib/POKITTO_CORE/PokittoDisplay.cpp:623
    if (col==invisiblecolor) return; // do not draw transparent pixels
     c44:	100018f8 	.word	0x100018f8
/home/manga/Projects/Pokitto/zboy-0.60/PokittoLib/POKITTO_CORE/PokittoDisplay.cpp:1504
                uint8_t col = (r_val&0x1) | ((g_val&0x1)<<1) | ((b_val&0x1)<<2);
     c48:	100018f6 	.word	0x100018f6
/home/manga/Projects/Pokitto/zboy-0.60/PokittoLib/POKITTO_CORE/PokittoDisplay.cpp:1505
                r_val >>= 1; g_val >>= 1; b_val >>= 1;
     c4c:	0000ee88 	.word	0x0000ee88
/home/manga/Projects/Pokitto/zboy-0.60/PokittoLib/POKITTO_CORE/PokittoDisplay.cpp:623
    if (col==invisiblecolor) return; // do not draw transparent pixels
     c50:	100018fc 	.word	0x100018fc
/home/manga/Projects/Pokitto/zboy-0.60/PokittoLib/POKITTO_CORE/PokittoDisplay.cpp:624
    if ((uint16_t)x >= width || (uint16_t)y >= height) return;
     c54:	10000261 	.word	0x10000261
     c58:	1000010a 	.word	0x1000010a
     c5c:	10001902 	.word	0x10001902
     c60:	10000269 	.word	0x10000269
     c64:	100018f0 	.word	0x100018f0
     c68:	10001b10 	.word	0x10001b10

00000c6c <_ZN7Pokitto7Display8clearLCDEv>:
_ZN7Pokitto7Display8clearLCDEv():
/home/manga/Projects/Pokitto/zboy-0.60/PokittoLib/POKITTO_CORE/PokittoDisplay.cpp:624
     c6c:	b510      	push	{r4, lr}
/home/manga/Projects/Pokitto/zboy-0.60/PokittoLib/POKITTO_CORE/PokittoDisplay.cpp:653
        if (col) {
     c6e:	2000      	movs	r0, #0
     c70:	f001 fe5a 	bl	2928 <_ZN7Pokitto14lcdFillSurfaceEt>
_ZN7Pokitto7Display9setCursorEss():
/home/manga/Projects/Pokitto/zboy-0.60/PokittoLib/POKITTO_CORE/PokittoDisplay.cpp:654
                col &= 3;
     c74:	2300      	movs	r3, #0
/home/manga/Projects/Pokitto/zboy-0.60/PokittoLib/POKITTO_CORE/PokittoDisplay.cpp:656
        uint16_t i = y*(width>>2) + (x>>2);
     c76:	4a02      	ldr	r2, [pc, #8]	; (c80 <_ZN7Pokitto7Display8clearLCDEv+0x14>)
     c78:	8013      	strh	r3, [r2, #0]
     c7a:	4a02      	ldr	r2, [pc, #8]	; (c84 <_ZN7Pokitto7Display8clearLCDEv+0x18>)
/home/manga/Projects/Pokitto/zboy-0.60/PokittoLib/POKITTO_CORE/PokittoDisplay.cpp:661
        else if (column==1) pixel = (pixel&0xCF)|(col<<4); // bits 4-5
     c7c:	8013      	strh	r3, [r2, #0]
_ZN7Pokitto7Display8clearLCDEv():
/home/manga/Projects/Pokitto/zboy-0.60/PokittoLib/POKITTO_CORE/PokittoDisplay.cpp:656
        uint16_t i = y*(width>>2) + (x>>2);
     c7e:	bd10      	pop	{r4, pc}
/home/manga/Projects/Pokitto/zboy-0.60/PokittoLib/POKITTO_CORE/PokittoDisplay.cpp:657
        uint8_t pixel = m_scrbuf[i];
     c80:	10001904 	.word	0x10001904
     c84:	10001906 	.word	0x10001906

00000c88 <_ZN7Pokitto7Display7fillLCDEt>:
_ZN7Pokitto7Display7fillLCDEt():
/home/manga/Projects/Pokitto/zboy-0.60/PokittoLib/POKITTO_CORE/PokittoDisplay.cpp:657
     c88:	b510      	push	{r4, lr}
     c8a:	f001 fe4d 	bl	2928 <_ZN7Pokitto14lcdFillSurfaceEt>
/home/manga/Projects/Pokitto/zboy-0.60/PokittoLib/POKITTO_CORE/PokittoDisplay.cpp:661
        else if (column==1) pixel = (pixel&0xCF)|(col<<4); // bits 4-5
     c8e:	bd10      	pop	{r4, pc}

00000c90 <_ZN7Pokitto7Display5beginEv>:
_ZN7Pokitto7Display5beginEv():
/home/manga/Projects/Pokitto/zboy-0.60/PokittoLib/POKITTO_CORE/PokittoDisplay.cpp:661
     c90:	b510      	push	{r4, lr}
     c92:	f001 ff59 	bl	2b48 <_ZN7Pokitto7lcdInitEv>
/home/manga/Projects/Pokitto/zboy-0.60/PokittoLib/POKITTO_CORE/PokittoDisplay.cpp:663
        m_scrbuf[i] = pixel;
     c96:	bd10      	pop	{r4, pc}

00000c98 <_ZN7Pokitto7Display9setCursorEss>:
_ZN7Pokitto7Display9setCursorEss():
/home/manga/Projects/Pokitto/zboy-0.60/PokittoLib/POKITTO_CORE/PokittoDisplay.cpp:1504
                uint8_t col = (r_val&0x1) | ((g_val&0x1)<<1) | ((b_val&0x1)<<2);
     c98:	4b02      	ldr	r3, [pc, #8]	; (ca4 <_ZN7Pokitto7Display9setCursorEss+0xc>)
     c9a:	8018      	strh	r0, [r3, #0]
     c9c:	4b02      	ldr	r3, [pc, #8]	; (ca8 <_ZN7Pokitto7Display9setCursorEss+0x10>)
     c9e:	8019      	strh	r1, [r3, #0]
/home/manga/Projects/Pokitto/zboy-0.60/PokittoLib/POKITTO_CORE/PokittoDisplay.cpp:623
    if (col==invisiblecolor) return; // do not draw transparent pixels
     ca0:	4770      	bx	lr
     ca2:	46c0      	nop			; (mov r8, r8)
     ca4:	10001904 	.word	0x10001904
     ca8:	10001906 	.word	0x10001906

00000cac <_ZN7Pokitto7Display6updateEbhhhh>:
_ZN7Pokitto7Display6updateEbhhhh():
/home/manga/Projects/Pokitto/zboy-0.60/PokittoLib/POKITTO_CORE/PokittoDisplay.cpp:624
    if ((uint16_t)x >= width || (uint16_t)y >= height) return;
     cac:	b570      	push	{r4, r5, r6, lr}
     cae:	2800      	cmp	r0, #0
     cb0:	d032      	beq.n	d18 <_ZN7Pokitto7Display6updateEbhhhh+0x6c>
     cb2:	4b31      	ldr	r3, [pc, #196]	; (d78 <_ZN7Pokitto7Display6updateEbhhhh+0xcc>)
     cb4:	781b      	ldrb	r3, [r3, #0]
     cb6:	2b00      	cmp	r3, #0
     cb8:	d000      	beq.n	cbc <_ZN7Pokitto7Display6updateEbhhhh+0x10>
     cba:	bd70      	pop	{r4, r5, r6, pc}
_ZN7Pokitto7Display5clearEv():
/home/manga/Projects/Pokitto/zboy-0.60/PokittoLib/POKITTO_CORE/PokittoDisplay.cpp:624
     cbc:	4c2f      	ldr	r4, [pc, #188]	; (d7c <_ZN7Pokitto7Display6updateEbhhhh+0xd0>)
     cbe:	4b30      	ldr	r3, [pc, #192]	; (d80 <_ZN7Pokitto7Display6updateEbhhhh+0xd4>)
     cc0:	8822      	ldrh	r2, [r4, #0]
     cc2:	4d30      	ldr	r5, [pc, #192]	; (d84 <_ZN7Pokitto7Display6updateEbhhhh+0xd8>)
     cc4:	781b      	ldrb	r3, [r3, #0]
     cc6:	b2d6      	uxtb	r6, r2
/home/manga/Projects/Pokitto/zboy-0.60/PokittoLib/POKITTO_CORE/PokittoDisplay.cpp:653
        if (col) {
     cc8:	6828      	ldr	r0, [r5, #0]
     cca:	2b01      	cmp	r3, #1
     ccc:	d03b      	beq.n	d46 <_ZN7Pokitto7Display6updateEbhhhh+0x9a>
/home/manga/Projects/Pokitto/zboy-0.60/PokittoLib/POKITTO_CORE/PokittoDisplay.cpp:654
                col &= 3;
     cce:	2b02      	cmp	r3, #2
     cd0:	d029      	beq.n	d26 <_ZN7Pokitto7Display6updateEbhhhh+0x7a>
/home/manga/Projects/Pokitto/zboy-0.60/PokittoLib/POKITTO_CORE/PokittoDisplay.cpp:656
        uint16_t i = y*(width>>2) + (x>>2);
     cd2:	2b03      	cmp	r3, #3
     cd4:	d13a      	bne.n	d4c <_ZN7Pokitto7Display6updateEbhhhh+0xa0>
     cd6:	07d3      	lsls	r3, r2, #31
/home/manga/Projects/Pokitto/zboy-0.60/PokittoLib/POKITTO_CORE/PokittoDisplay.cpp:661
        else if (column==1) pixel = (pixel&0xCF)|(col<<4); // bits 4-5
     cd8:	d43e      	bmi.n	d58 <_ZN7Pokitto7Display6updateEbhhhh+0xac>
/home/manga/Projects/Pokitto/zboy-0.60/PokittoLib/POKITTO_CORE/PokittoDisplay.cpp:656
        uint16_t i = y*(width>>2) + (x>>2);
     cda:	22b4      	movs	r2, #180	; 0xb4
/home/manga/Projects/Pokitto/zboy-0.60/PokittoLib/POKITTO_CORE/PokittoDisplay.cpp:657
        uint8_t pixel = m_scrbuf[i];
     cdc:	2100      	movs	r1, #0
/home/manga/Projects/Pokitto/zboy-0.60/PokittoLib/POKITTO_CORE/PokittoDisplay.cpp:656
        uint16_t i = y*(width>>2) + (x>>2);
     cde:	0112      	lsls	r2, r2, #4
/home/manga/Projects/Pokitto/zboy-0.60/PokittoLib/POKITTO_CORE/PokittoDisplay.cpp:657
        uint8_t pixel = m_scrbuf[i];
     ce0:	f00c ffd4 	bl	dc8c <memset>
     ce4:	22b4      	movs	r2, #180	; 0xb4
     ce6:	0112      	lsls	r2, r2, #4
     ce8:	4694      	mov	ip, r2
/home/manga/Projects/Pokitto/zboy-0.60/PokittoLib/POKITTO_CORE/PokittoDisplay.cpp:661
        else if (column==1) pixel = (pixel&0xCF)|(col<<4); // bits 4-5
     cea:	682b      	ldr	r3, [r5, #0]
     cec:	4463      	add	r3, ip
     cee:	0018      	movs	r0, r3
     cf0:	8823      	ldrh	r3, [r4, #0]
/home/manga/Projects/Pokitto/zboy-0.60/PokittoLib/POKITTO_CORE/PokittoDisplay.cpp:663
        m_scrbuf[i] = pixel;
     cf2:	079b      	lsls	r3, r3, #30
     cf4:	d53a      	bpl.n	d6c <_ZN7Pokitto7Display6updateEbhhhh+0xc0>
     cf6:	21ff      	movs	r1, #255	; 0xff
     cf8:	f00c ffc8 	bl	dc8c <memset>
/home/manga/Projects/Pokitto/zboy-0.60/PokittoLib/POKITTO_CORE/PokittoDisplay.cpp:1504
                uint8_t col = (r_val&0x1) | ((g_val&0x1)<<1) | ((b_val&0x1)<<2);
     cfc:	23b4      	movs	r3, #180	; 0xb4
     cfe:	015b      	lsls	r3, r3, #5
     d00:	469c      	mov	ip, r3
     d02:	22b4      	movs	r2, #180	; 0xb4
     d04:	6828      	ldr	r0, [r5, #0]
     d06:	8823      	ldrh	r3, [r4, #0]
/home/manga/Projects/Pokitto/zboy-0.60/PokittoLib/POKITTO_CORE/PokittoDisplay.cpp:623
    if (col==invisiblecolor) return; // do not draw transparent pixels
     d08:	4460      	add	r0, ip
/home/manga/Projects/Pokitto/zboy-0.60/PokittoLib/POKITTO_CORE/PokittoDisplay.cpp:1504
                uint8_t col = (r_val&0x1) | ((g_val&0x1)<<1) | ((b_val&0x1)<<2);
     d0a:	0112      	lsls	r2, r2, #4
     d0c:	075b      	lsls	r3, r3, #29
/home/manga/Projects/Pokitto/zboy-0.60/PokittoLib/POKITTO_CORE/PokittoDisplay.cpp:623
    if (col==invisiblecolor) return; // do not draw transparent pixels
     d0e:	d529      	bpl.n	d64 <_ZN7Pokitto7Display6updateEbhhhh+0xb8>
/home/manga/Projects/Pokitto/zboy-0.60/PokittoLib/POKITTO_CORE/PokittoDisplay.cpp:1504
                uint8_t col = (r_val&0x1) | ((g_val&0x1)<<1) | ((b_val&0x1)<<2);
     d10:	21ff      	movs	r1, #255	; 0xff
/home/manga/Projects/Pokitto/zboy-0.60/PokittoLib/POKITTO_CORE/PokittoDisplay.cpp:1505
                r_val >>= 1; g_val >>= 1; b_val >>= 1;
     d12:	f00c ffbb 	bl	dc8c <memset>
     d16:	e010      	b.n	d3a <_ZN7Pokitto7Display6updateEbhhhh+0x8e>
_ZN7Pokitto7Display6updateEbhhhh():
/home/manga/Projects/Pokitto/zboy-0.60/PokittoLib/POKITTO_CORE/PokittoDisplay.cpp:1505
     d18:	4b1b      	ldr	r3, [pc, #108]	; (d88 <_ZN7Pokitto7Display6updateEbhhhh+0xdc>)
/home/manga/Projects/Pokitto/zboy-0.60/PokittoLib/POKITTO_CORE/PokittoDisplay.cpp:623
    if (col==invisiblecolor) return; // do not draw transparent pixels
     d1a:	6819      	ldr	r1, [r3, #0]
     d1c:	4b19      	ldr	r3, [pc, #100]	; (d84 <_ZN7Pokitto7Display6updateEbhhhh+0xd8>)
/home/manga/Projects/Pokitto/zboy-0.60/PokittoLib/POKITTO_CORE/PokittoDisplay.cpp:624
    if ((uint16_t)x >= width || (uint16_t)y >= height) return;
     d1e:	6818      	ldr	r0, [r3, #0]
     d20:	f002 fd24 	bl	376c <_ZN7Pokitto17lcdRefreshModeGBCEPhPt>
     d24:	e7c5      	b.n	cb2 <_ZN7Pokitto7Display6updateEbhhhh+0x6>
_ZN7Pokitto7Display5clearEv():
/home/manga/Projects/Pokitto/zboy-0.60/PokittoLib/POKITTO_CORE/PokittoDisplay.cpp:624
     d26:	2103      	movs	r1, #3
     d28:	400e      	ands	r6, r1
     d2a:	00b1      	lsls	r1, r6, #2
     d2c:	4331      	orrs	r1, r6
     d2e:	010b      	lsls	r3, r1, #4
     d30:	4319      	orrs	r1, r3
     d32:	22b4      	movs	r2, #180	; 0xb4
     d34:	0152      	lsls	r2, r2, #5
     d36:	f00c ffa9 	bl	dc8c <memset>
_ZN7Pokitto7Display9setCursorEss():
/home/manga/Projects/Pokitto/zboy-0.60/PokittoLib/POKITTO_CORE/PokittoDisplay.cpp:624
     d3a:	2300      	movs	r3, #0
/home/manga/Projects/Pokitto/zboy-0.60/PokittoLib/POKITTO_CORE/PokittoDisplay.cpp:653
        if (col) {
     d3c:	4a13      	ldr	r2, [pc, #76]	; (d8c <_ZN7Pokitto7Display6updateEbhhhh+0xe0>)
     d3e:	8013      	strh	r3, [r2, #0]
     d40:	4a13      	ldr	r2, [pc, #76]	; (d90 <_ZN7Pokitto7Display6updateEbhhhh+0xe4>)
     d42:	8013      	strh	r3, [r2, #0]
_ZN7Pokitto7Display6updateEbhhhh():
/home/manga/Projects/Pokitto/zboy-0.60/PokittoLib/POKITTO_CORE/PokittoDisplay.cpp:654
                col &= 3;
     d44:	e7b9      	b.n	cba <_ZN7Pokitto7Display6updateEbhhhh+0xe>
_ZN7Pokitto7Display5clearEv():
/home/manga/Projects/Pokitto/zboy-0.60/PokittoLib/POKITTO_CORE/PokittoDisplay.cpp:654
     d46:	21ff      	movs	r1, #255	; 0xff
     d48:	2a00      	cmp	r2, #0
/home/manga/Projects/Pokitto/zboy-0.60/PokittoLib/POKITTO_CORE/PokittoDisplay.cpp:656
        uint16_t i = y*(width>>2) + (x>>2);
     d4a:	d1f2      	bne.n	d32 <_ZN7Pokitto7Display6updateEbhhhh+0x86>
     d4c:	210f      	movs	r1, #15
     d4e:	0136      	lsls	r6, r6, #4
     d50:	4011      	ands	r1, r2
/home/manga/Projects/Pokitto/zboy-0.60/PokittoLib/POKITTO_CORE/PokittoDisplay.cpp:659
        if (column==3) pixel = (pixel&0xFC)|(col); // bits 0-1
     d52:	4331      	orrs	r1, r6
/home/manga/Projects/Pokitto/zboy-0.60/PokittoLib/POKITTO_CORE/PokittoDisplay.cpp:656
        uint16_t i = y*(width>>2) + (x>>2);
     d54:	b2c9      	uxtb	r1, r1
/home/manga/Projects/Pokitto/zboy-0.60/PokittoLib/POKITTO_CORE/PokittoDisplay.cpp:657
        uint8_t pixel = m_scrbuf[i];
     d56:	e7ec      	b.n	d32 <_ZN7Pokitto7Display6updateEbhhhh+0x86>
/home/manga/Projects/Pokitto/zboy-0.60/PokittoLib/POKITTO_CORE/PokittoDisplay.cpp:656
        uint16_t i = y*(width>>2) + (x>>2);
     d58:	22b4      	movs	r2, #180	; 0xb4
/home/manga/Projects/Pokitto/zboy-0.60/PokittoLib/POKITTO_CORE/PokittoDisplay.cpp:657
        uint8_t pixel = m_scrbuf[i];
     d5a:	21ff      	movs	r1, #255	; 0xff
     d5c:	0112      	lsls	r2, r2, #4
     d5e:	f00c ff95 	bl	dc8c <memset>
/home/manga/Projects/Pokitto/zboy-0.60/PokittoLib/POKITTO_CORE/PokittoDisplay.cpp:659
        if (column==3) pixel = (pixel&0xFC)|(col); // bits 0-1
     d62:	e7bf      	b.n	ce4 <_ZN7Pokitto7Display6updateEbhhhh+0x38>
     d64:	2100      	movs	r1, #0
     d66:	f00c ff91 	bl	dc8c <memset>
/home/manga/Projects/Pokitto/zboy-0.60/PokittoLib/POKITTO_CORE/PokittoDisplay.cpp:1504
                uint8_t col = (r_val&0x1) | ((g_val&0x1)<<1) | ((b_val&0x1)<<2);
     d6a:	e7e6      	b.n	d3a <_ZN7Pokitto7Display6updateEbhhhh+0x8e>
     d6c:	22b4      	movs	r2, #180	; 0xb4
     d6e:	2100      	movs	r1, #0
     d70:	0112      	lsls	r2, r2, #4
     d72:	f00c ff8b 	bl	dc8c <memset>
     d76:	e7c1      	b.n	cfc <_ZN7Pokitto7Display6updateEbhhhh+0x50>
     d78:	10000268 	.word	0x10000268
     d7c:	10001902 	.word	0x10001902
/home/manga/Projects/Pokitto/zboy-0.60/PokittoLib/POKITTO_CORE/PokittoDisplay.cpp:623
    if (col==invisiblecolor) return; // do not draw transparent pixels
     d80:	1000010c 	.word	0x1000010c
/home/manga/Projects/Pokitto/zboy-0.60/PokittoLib/POKITTO_CORE/PokittoDisplay.cpp:1505
                r_val >>= 1; g_val >>= 1; b_val >>= 1;
     d84:	10001b08 	.word	0x10001b08
/home/manga/Projects/Pokitto/zboy-0.60/PokittoLib/POKITTO_CORE/PokittoDisplay.cpp:623
    if (col==invisiblecolor) return; // do not draw transparent pixels
     d88:	10000264 	.word	0x10000264
/home/manga/Projects/Pokitto/zboy-0.60/PokittoLib/POKITTO_CORE/PokittoDisplay.cpp:624
    if ((uint16_t)x >= width || (uint16_t)y >= height) return;
     d8c:	10001904 	.word	0x10001904
     d90:	10001906 	.word	0x10001906

00000d94 <_ZN7Pokitto7Display12directBitmapEssPKhhh>:
_ZN7Pokitto7Display12directBitmapEssPKhhh():
/home/manga/Projects/Pokitto/zboy-0.60/PokittoLib/POKITTO_CORE/PokittoDisplay.cpp:624
     d94:	b5f0      	push	{r4, r5, r6, r7, lr}
     d96:	46de      	mov	lr, fp
     d98:	4657      	mov	r7, sl
     d9a:	464e      	mov	r6, r9
     d9c:	4645      	mov	r5, r8
     d9e:	b5e0      	push	{r5, r6, r7, lr}
     da0:	b08d      	sub	sp, #52	; 0x34
     da2:	9107      	str	r1, [sp, #28]
     da4:	a916      	add	r1, sp, #88	; 0x58
     da6:	7809      	ldrb	r1, [r1, #0]
     da8:	9101      	str	r1, [sp, #4]
     daa:	7851      	ldrb	r1, [r2, #1]
/home/manga/Projects/Pokitto/zboy-0.60/PokittoLib/POKITTO_CORE/PokittoDisplay.cpp:653
        if (col) {
     dac:	9109      	str	r1, [sp, #36]	; 0x24
     dae:	1c91      	adds	r1, r2, #2
     db0:	7812      	ldrb	r2, [r2, #0]
     db2:	468b      	mov	fp, r1
/home/manga/Projects/Pokitto/zboy-0.60/PokittoLib/POKITTO_CORE/PokittoDisplay.cpp:654
                col &= 3;
     db4:	9203      	str	r2, [sp, #12]
     db6:	2b01      	cmp	r3, #1
     db8:	d100      	bne.n	dbc <_ZN7Pokitto7Display12directBitmapEssPKhhh+0x28>
/home/manga/Projects/Pokitto/zboy-0.60/PokittoLib/POKITTO_CORE/PokittoDisplay.cpp:656
        uint16_t i = y*(width>>2) + (x>>2);
     dba:	e10d      	b.n	fd8 <_ZN7Pokitto7Display12directBitmapEssPKhhh+0x244>
     dbc:	2b04      	cmp	r3, #4
     dbe:	d006      	beq.n	dce <_ZN7Pokitto7Display12directBitmapEssPKhhh+0x3a>
     dc0:	b00d      	add	sp, #52	; 0x34
/home/manga/Projects/Pokitto/zboy-0.60/PokittoLib/POKITTO_CORE/PokittoDisplay.cpp:659
        if (column==3) pixel = (pixel&0xFC)|(col); // bits 0-1
     dc2:	bc3c      	pop	{r2, r3, r4, r5}
/home/manga/Projects/Pokitto/zboy-0.60/PokittoLib/POKITTO_CORE/PokittoDisplay.cpp:656
        uint16_t i = y*(width>>2) + (x>>2);
     dc4:	4690      	mov	r8, r2
/home/manga/Projects/Pokitto/zboy-0.60/PokittoLib/POKITTO_CORE/PokittoDisplay.cpp:657
        uint8_t pixel = m_scrbuf[i];
     dc6:	4699      	mov	r9, r3
/home/manga/Projects/Pokitto/zboy-0.60/PokittoLib/POKITTO_CORE/PokittoDisplay.cpp:656
        uint16_t i = y*(width>>2) + (x>>2);
     dc8:	46a2      	mov	sl, r4
/home/manga/Projects/Pokitto/zboy-0.60/PokittoLib/POKITTO_CORE/PokittoDisplay.cpp:657
        uint8_t pixel = m_scrbuf[i];
     dca:	46ab      	mov	fp, r5
     dcc:	bdf0      	pop	{r4, r5, r6, r7, pc}
     dce:	9b09      	ldr	r3, [sp, #36]	; 0x24
/home/manga/Projects/Pokitto/zboy-0.60/PokittoLib/POKITTO_CORE/PokittoDisplay.cpp:659
        if (column==3) pixel = (pixel&0xFC)|(col); // bits 0-1
     dd0:	2b00      	cmp	r3, #0
     dd2:	d0f5      	beq.n	dc0 <_ZN7Pokitto7Display12directBitmapEssPKhhh+0x2c>
     dd4:	2a00      	cmp	r2, #0
     dd6:	d0f3      	beq.n	dc0 <_ZN7Pokitto7Display12directBitmapEssPKhhh+0x2c>
/home/manga/Projects/Pokitto/zboy-0.60/PokittoLib/POKITTO_CORE/PokittoDisplay.cpp:663
        m_scrbuf[i] = pixel;
     dd8:	466b      	mov	r3, sp
/home/manga/Projects/Pokitto/zboy-0.60/PokittoLib/POKITTO_CORE/PokittoDisplay.cpp:1504
                uint8_t col = (r_val&0x1) | ((g_val&0x1)<<1) | ((b_val&0x1)<<2);
     dda:	8b9a      	ldrh	r2, [r3, #28]
     ddc:	b283      	uxth	r3, r0
     dde:	9302      	str	r3, [sp, #8]
     de0:	4b95      	ldr	r3, [pc, #596]	; (1038 <_ZN7Pokitto7Display12directBitmapEssPKhhh+0x2a4>)
_ZN7Pokitto7Display11directPixelEsst():
/home/manga/Projects/Pokitto/zboy-0.60/PokittoLib/POKITTO_CORE/PokittoDisplay.cpp:1504
     de2:	000e      	movs	r6, r1
     de4:	4698      	mov	r8, r3
     de6:	4b95      	ldr	r3, [pc, #596]	; (103c <_ZN7Pokitto7Display12directBitmapEssPKhhh+0x2a8>)
     de8:	920b      	str	r2, [sp, #44]	; 0x2c
     dea:	4699      	mov	r9, r3
/home/manga/Projects/Pokitto/zboy-0.60/PokittoLib/POKITTO_CORE/PokittoDisplay.cpp:1505
                r_val >>= 1; g_val >>= 1; b_val >>= 1;
     dec:	2301      	movs	r3, #1
     dee:	1a9b      	subs	r3, r3, r2
     df0:	b29b      	uxth	r3, r3
_ZN7Pokitto7Display12directBitmapEssPKhhh():
/home/manga/Projects/Pokitto/zboy-0.60/PokittoLib/POKITTO_CORE/PokittoDisplay.cpp:1505
     df2:	9208      	str	r2, [sp, #32]
/home/manga/Projects/Pokitto/zboy-0.60/PokittoLib/POKITTO_CORE/PokittoDisplay.cpp:623
    if (col==invisiblecolor) return; // do not draw transparent pixels
     df4:	930a      	str	r3, [sp, #40]	; 0x28
     df6:	9b08      	ldr	r3, [sp, #32]
/home/manga/Projects/Pokitto/zboy-0.60/PokittoLib/POKITTO_CORE/PokittoDisplay.cpp:1504
                uint8_t col = (r_val&0x1) | ((g_val&0x1)<<1) | ((b_val&0x1)<<2);
     df8:	9a0b      	ldr	r2, [sp, #44]	; 0x2c
/home/manga/Projects/Pokitto/zboy-0.60/PokittoLib/POKITTO_CORE/PokittoDisplay.cpp:1505
                r_val >>= 1; g_val >>= 1; b_val >>= 1;
     dfa:	005b      	lsls	r3, r3, #1
/home/manga/Projects/Pokitto/zboy-0.60/PokittoLib/POKITTO_CORE/PokittoDisplay.cpp:623
    if (col==invisiblecolor) return; // do not draw transparent pixels
     dfc:	b29b      	uxth	r3, r3
     dfe:	1a9a      	subs	r2, r3, r2
/home/manga/Projects/Pokitto/zboy-0.60/PokittoLib/POKITTO_CORE/PokittoDisplay.cpp:624
    if ((uint16_t)x >= width || (uint16_t)y >= height) return;
     e00:	b212      	sxth	r2, r2
     e02:	9204      	str	r2, [sp, #16]
     e04:	9a0a      	ldr	r2, [sp, #40]	; 0x28
     e06:	2400      	movs	r4, #0
     e08:	4694      	mov	ip, r2
     e0a:	4463      	add	r3, ip
     e0c:	b21b      	sxth	r3, r3
     e0e:	9305      	str	r3, [sp, #20]
     e10:	9b02      	ldr	r3, [sp, #8]
     e12:	3301      	adds	r3, #1
     e14:	9307      	str	r3, [sp, #28]
     e16:	e033      	b.n	e80 <_ZN7Pokitto7Display12directBitmapEssPKhhh+0xec>
     e18:	9902      	ldr	r1, [sp, #8]
     e1a:	b2a5      	uxth	r5, r4
     e1c:	1868      	adds	r0, r5, r1
     e1e:	b201      	sxth	r1, r0
     e20:	9106      	str	r1, [sp, #24]
/home/manga/Projects/Pokitto/zboy-0.60/PokittoLib/POKITTO_CORE/PokittoDisplay.cpp:653
        if (col) {
     e22:	4669      	mov	r1, sp
     e24:	2020      	movs	r0, #32
     e26:	5e09      	ldrsh	r1, [r1, r0]
     e28:	468a      	mov	sl, r1
_ZN7Pokitto7Display11directPixelEsst():
/home/manga/Projects/Pokitto/zboy-0.60/PokittoLib/POKITTO_CORE/PokittoDisplay.cpp:654
                col &= 3;
     e2a:	2b0f      	cmp	r3, #15
     e2c:	d805      	bhi.n	e3a <_ZN7Pokitto7Display12directBitmapEssPKhhh+0xa6>
     e2e:	4984      	ldr	r1, [pc, #528]	; (1040 <_ZN7Pokitto7Display12directBitmapEssPKhhh+0x2ac>)
/home/manga/Projects/Pokitto/zboy-0.60/PokittoLib/POKITTO_CORE/PokittoDisplay.cpp:656
        uint16_t i = y*(width>>2) + (x>>2);
     e30:	005b      	lsls	r3, r3, #1
     e32:	5ac8      	ldrh	r0, [r1, r3]
     e34:	42b8      	cmp	r0, r7
     e36:	d100      	bne.n	e3a <_ZN7Pokitto7Display12directBitmapEssPKhhh+0xa6>
     e38:	e179      	b.n	112e <_ZN7Pokitto7Display12directBitmapEssPKhhh+0x39a>
     e3a:	003a      	movs	r2, r7
/home/manga/Projects/Pokitto/zboy-0.60/PokittoLib/POKITTO_CORE/PokittoDisplay.cpp:657
        uint8_t pixel = m_scrbuf[i];
     e3c:	4651      	mov	r1, sl
/home/manga/Projects/Pokitto/zboy-0.60/PokittoLib/POKITTO_CORE/PokittoDisplay.cpp:656
        uint16_t i = y*(width>>2) + (x>>2);
     e3e:	9806      	ldr	r0, [sp, #24]
/home/manga/Projects/Pokitto/zboy-0.60/PokittoLib/POKITTO_CORE/PokittoDisplay.cpp:657
        uint8_t pixel = m_scrbuf[i];
     e40:	f002 fb1a 	bl	3478 <_ZN7Pokitto8lcdPixelEsst>
_ZN7Pokitto7Display12directBitmapEssPKhhh():
/home/manga/Projects/Pokitto/zboy-0.60/PokittoLib/POKITTO_CORE/PokittoDisplay.cpp:657
     e44:	220f      	movs	r2, #15
/home/manga/Projects/Pokitto/zboy-0.60/PokittoLib/POKITTO_CORE/PokittoDisplay.cpp:659
        if (column==3) pixel = (pixel&0xFC)|(col); // bits 0-1
     e46:	7831      	ldrb	r1, [r6, #0]
     e48:	4643      	mov	r3, r8
     e4a:	400a      	ands	r2, r1
     e4c:	4649      	mov	r1, r9
     e4e:	6809      	ldr	r1, [r1, #0]
/home/manga/Projects/Pokitto/zboy-0.60/PokittoLib/POKITTO_CORE/PokittoDisplay.cpp:663
        m_scrbuf[i] = pixel;
     e50:	0052      	lsls	r2, r2, #1
/home/manga/Projects/Pokitto/zboy-0.60/PokittoLib/POKITTO_CORE/PokittoDisplay.cpp:1504
                uint8_t col = (r_val&0x1) | ((g_val&0x1)<<1) | ((b_val&0x1)<<2);
     e52:	5a52      	ldrh	r2, [r2, r1]
     e54:	9907      	ldr	r1, [sp, #28]
     e56:	881b      	ldrh	r3, [r3, #0]
     e58:	468c      	mov	ip, r1
     e5a:	4465      	add	r5, ip
     e5c:	b228      	sxth	r0, r5
_ZN7Pokitto7Display11directPixelEsst():
/home/manga/Projects/Pokitto/zboy-0.60/PokittoLib/POKITTO_CORE/PokittoDisplay.cpp:1504
     e5e:	2b0f      	cmp	r3, #15
     e60:	d804      	bhi.n	e6c <_ZN7Pokitto7Display12directBitmapEssPKhhh+0xd8>
     e62:	4977      	ldr	r1, [pc, #476]	; (1040 <_ZN7Pokitto7Display12directBitmapEssPKhhh+0x2ac>)
     e64:	005b      	lsls	r3, r3, #1
/home/manga/Projects/Pokitto/zboy-0.60/PokittoLib/POKITTO_CORE/PokittoDisplay.cpp:1505
                r_val >>= 1; g_val >>= 1; b_val >>= 1;
     e66:	5acb      	ldrh	r3, [r1, r3]
     e68:	4293      	cmp	r3, r2
     e6a:	d002      	beq.n	e72 <_ZN7Pokitto7Display12directBitmapEssPKhhh+0xde>
     e6c:	4651      	mov	r1, sl
/home/manga/Projects/Pokitto/zboy-0.60/PokittoLib/POKITTO_CORE/PokittoDisplay.cpp:623
    if (col==invisiblecolor) return; // do not draw transparent pixels
     e6e:	f002 fb03 	bl	3478 <_ZN7Pokitto8lcdPixelEsst>
/home/manga/Projects/Pokitto/zboy-0.60/PokittoLib/POKITTO_CORE/PokittoDisplay.cpp:1504
                uint8_t col = (r_val&0x1) | ((g_val&0x1)<<1) | ((b_val&0x1)<<2);
     e72:	3402      	adds	r4, #2
_ZN7Pokitto7Display12directBitmapEssPKhhh():
/home/manga/Projects/Pokitto/zboy-0.60/PokittoLib/POKITTO_CORE/PokittoDisplay.cpp:1504
     e74:	9b03      	ldr	r3, [sp, #12]
/home/manga/Projects/Pokitto/zboy-0.60/PokittoLib/POKITTO_CORE/PokittoDisplay.cpp:1505
                r_val >>= 1; g_val >>= 1; b_val >>= 1;
     e76:	b224      	sxth	r4, r4
/home/manga/Projects/Pokitto/zboy-0.60/PokittoLib/POKITTO_CORE/PokittoDisplay.cpp:623
    if (col==invisiblecolor) return; // do not draw transparent pixels
     e78:	3601      	adds	r6, #1
     e7a:	42a3      	cmp	r3, r4
/home/manga/Projects/Pokitto/zboy-0.60/PokittoLib/POKITTO_CORE/PokittoDisplay.cpp:624
    if ((uint16_t)x >= width || (uint16_t)y >= height) return;
     e7c:	dc00      	bgt.n	e80 <_ZN7Pokitto7Display12directBitmapEssPKhhh+0xec>
     e7e:	e09d      	b.n	fbc <_ZN7Pokitto7Display12directBitmapEssPKhhh+0x228>
     e80:	464b      	mov	r3, r9
     e82:	681b      	ldr	r3, [r3, #0]
     e84:	7832      	ldrb	r2, [r6, #0]
     e86:	469c      	mov	ip, r3
     e88:	4661      	mov	r1, ip
     e8a:	1113      	asrs	r3, r2, #4
     e8c:	005b      	lsls	r3, r3, #1
     e8e:	5a5f      	ldrh	r7, [r3, r1]
     e90:	4643      	mov	r3, r8
     e92:	9901      	ldr	r1, [sp, #4]
     e94:	881b      	ldrh	r3, [r3, #0]
     e96:	2902      	cmp	r1, #2
     e98:	d1be      	bne.n	e18 <_ZN7Pokitto7Display12directBitmapEssPKhhh+0x84>
     e9a:	0065      	lsls	r5, r4, #1
     e9c:	9902      	ldr	r1, [sp, #8]
/home/manga/Projects/Pokitto/zboy-0.60/PokittoLib/POKITTO_CORE/PokittoDisplay.cpp:653
        if (col) {
     e9e:	b2ad      	uxth	r5, r5
     ea0:	1869      	adds	r1, r5, r1
     ea2:	b209      	sxth	r1, r1
     ea4:	468a      	mov	sl, r1
/home/manga/Projects/Pokitto/zboy-0.60/PokittoLib/POKITTO_CORE/PokittoDisplay.cpp:654
                col &= 3;
     ea6:	9907      	ldr	r1, [sp, #28]
     ea8:	1869      	adds	r1, r5, r1
     eaa:	b209      	sxth	r1, r1
/home/manga/Projects/Pokitto/zboy-0.60/PokittoLib/POKITTO_CORE/PokittoDisplay.cpp:656
        uint16_t i = y*(width>>2) + (x>>2);
     eac:	468b      	mov	fp, r1
_ZN7Pokitto7Display11directPixelEsst():
/home/manga/Projects/Pokitto/zboy-0.60/PokittoLib/POKITTO_CORE/PokittoDisplay.cpp:656
     eae:	2b0f      	cmp	r3, #15
     eb0:	d804      	bhi.n	ebc <_ZN7Pokitto7Display12directBitmapEssPKhhh+0x128>
     eb2:	4963      	ldr	r1, [pc, #396]	; (1040 <_ZN7Pokitto7Display12directBitmapEssPKhhh+0x2ac>)
     eb4:	0058      	lsls	r0, r3, #1
     eb6:	5a09      	ldrh	r1, [r1, r0]
/home/manga/Projects/Pokitto/zboy-0.60/PokittoLib/POKITTO_CORE/PokittoDisplay.cpp:657
        uint8_t pixel = m_scrbuf[i];
     eb8:	42b9      	cmp	r1, r7
/home/manga/Projects/Pokitto/zboy-0.60/PokittoLib/POKITTO_CORE/PokittoDisplay.cpp:656
        uint16_t i = y*(width>>2) + (x>>2);
     eba:	d031      	beq.n	f20 <_ZN7Pokitto7Display12directBitmapEssPKhhh+0x18c>
/home/manga/Projects/Pokitto/zboy-0.60/PokittoLib/POKITTO_CORE/PokittoDisplay.cpp:657
        uint8_t pixel = m_scrbuf[i];
     ebc:	003a      	movs	r2, r7
     ebe:	9904      	ldr	r1, [sp, #16]
     ec0:	4650      	mov	r0, sl
/home/manga/Projects/Pokitto/zboy-0.60/PokittoLib/POKITTO_CORE/PokittoDisplay.cpp:659
        if (column==3) pixel = (pixel&0xFC)|(col); // bits 0-1
     ec2:	f002 fad9 	bl	3478 <_ZN7Pokitto8lcdPixelEsst>
     ec6:	4643      	mov	r3, r8
     ec8:	881b      	ldrh	r3, [r3, #0]
     eca:	2b0f      	cmp	r3, #15
/home/manga/Projects/Pokitto/zboy-0.60/PokittoLib/POKITTO_CORE/PokittoDisplay.cpp:663
        m_scrbuf[i] = pixel;
     ecc:	d804      	bhi.n	ed8 <_ZN7Pokitto7Display12directBitmapEssPKhhh+0x144>
/home/manga/Projects/Pokitto/zboy-0.60/PokittoLib/POKITTO_CORE/PokittoDisplay.cpp:1504
                uint8_t col = (r_val&0x1) | ((g_val&0x1)<<1) | ((b_val&0x1)<<2);
     ece:	495c      	ldr	r1, [pc, #368]	; (1040 <_ZN7Pokitto7Display12directBitmapEssPKhhh+0x2ac>)
     ed0:	005a      	lsls	r2, r3, #1
     ed2:	5a8a      	ldrh	r2, [r1, r2]
     ed4:	42ba      	cmp	r2, r7
     ed6:	d022      	beq.n	f1e <_ZN7Pokitto7Display12directBitmapEssPKhhh+0x18a>
     ed8:	003a      	movs	r2, r7
     eda:	9904      	ldr	r1, [sp, #16]
     edc:	4658      	mov	r0, fp
     ede:	f002 facb 	bl	3478 <_ZN7Pokitto8lcdPixelEsst>
/home/manga/Projects/Pokitto/zboy-0.60/PokittoLib/POKITTO_CORE/PokittoDisplay.cpp:1505
                r_val >>= 1; g_val >>= 1; b_val >>= 1;
     ee2:	4643      	mov	r3, r8
     ee4:	881b      	ldrh	r3, [r3, #0]
     ee6:	2b0f      	cmp	r3, #15
     ee8:	d804      	bhi.n	ef4 <_ZN7Pokitto7Display12directBitmapEssPKhhh+0x160>
/home/manga/Projects/Pokitto/zboy-0.60/PokittoLib/POKITTO_CORE/PokittoDisplay.cpp:623
    if (col==invisiblecolor) return; // do not draw transparent pixels
     eea:	4955      	ldr	r1, [pc, #340]	; (1040 <_ZN7Pokitto7Display12directBitmapEssPKhhh+0x2ac>)
     eec:	005a      	lsls	r2, r3, #1
/home/manga/Projects/Pokitto/zboy-0.60/PokittoLib/POKITTO_CORE/PokittoDisplay.cpp:1504
                uint8_t col = (r_val&0x1) | ((g_val&0x1)<<1) | ((b_val&0x1)<<2);
     eee:	5a8a      	ldrh	r2, [r1, r2]
     ef0:	42ba      	cmp	r2, r7
/home/manga/Projects/Pokitto/zboy-0.60/PokittoLib/POKITTO_CORE/PokittoDisplay.cpp:1505
                r_val >>= 1; g_val >>= 1; b_val >>= 1;
     ef2:	d014      	beq.n	f1e <_ZN7Pokitto7Display12directBitmapEssPKhhh+0x18a>
/home/manga/Projects/Pokitto/zboy-0.60/PokittoLib/POKITTO_CORE/PokittoDisplay.cpp:623
    if (col==invisiblecolor) return; // do not draw transparent pixels
     ef4:	003a      	movs	r2, r7
     ef6:	9905      	ldr	r1, [sp, #20]
/home/manga/Projects/Pokitto/zboy-0.60/PokittoLib/POKITTO_CORE/PokittoDisplay.cpp:624
    if ((uint16_t)x >= width || (uint16_t)y >= height) return;
     ef8:	4658      	mov	r0, fp
     efa:	f002 fabd 	bl	3478 <_ZN7Pokitto8lcdPixelEsst>
     efe:	4643      	mov	r3, r8
     f00:	881b      	ldrh	r3, [r3, #0]
     f02:	2b0f      	cmp	r3, #15
     f04:	d804      	bhi.n	f10 <_ZN7Pokitto7Display12directBitmapEssPKhhh+0x17c>
     f06:	494e      	ldr	r1, [pc, #312]	; (1040 <_ZN7Pokitto7Display12directBitmapEssPKhhh+0x2ac>)
     f08:	005a      	lsls	r2, r3, #1
     f0a:	5a8a      	ldrh	r2, [r1, r2]
     f0c:	42ba      	cmp	r2, r7
     f0e:	d006      	beq.n	f1e <_ZN7Pokitto7Display12directBitmapEssPKhhh+0x18a>
     f10:	003a      	movs	r2, r7
     f12:	9905      	ldr	r1, [sp, #20]
     f14:	4650      	mov	r0, sl
     f16:	f002 faaf 	bl	3478 <_ZN7Pokitto8lcdPixelEsst>
/home/manga/Projects/Pokitto/zboy-0.60/PokittoLib/POKITTO_CORE/PokittoDisplay.cpp:653
        if (col) {
     f1a:	4643      	mov	r3, r8
     f1c:	881b      	ldrh	r3, [r3, #0]
     f1e:	7832      	ldrb	r2, [r6, #0]
_ZN7Pokitto7Display12directBitmapEssPKhhh():
/home/manga/Projects/Pokitto/zboy-0.60/PokittoLib/POKITTO_CORE/PokittoDisplay.cpp:653
     f20:	210f      	movs	r1, #15
/home/manga/Projects/Pokitto/zboy-0.60/PokittoLib/POKITTO_CORE/PokittoDisplay.cpp:654
                col &= 3;
     f22:	400a      	ands	r2, r1
     f24:	4649      	mov	r1, r9
     f26:	6809      	ldr	r1, [r1, #0]
/home/manga/Projects/Pokitto/zboy-0.60/PokittoLib/POKITTO_CORE/PokittoDisplay.cpp:656
        uint16_t i = y*(width>>2) + (x>>2);
     f28:	0052      	lsls	r2, r2, #1
     f2a:	5a52      	ldrh	r2, [r2, r1]
     f2c:	4692      	mov	sl, r2
     f2e:	9a02      	ldr	r2, [sp, #8]
     f30:	1c97      	adds	r7, r2, #2
     f32:	3203      	adds	r2, #3
/home/manga/Projects/Pokitto/zboy-0.60/PokittoLib/POKITTO_CORE/PokittoDisplay.cpp:657
        uint8_t pixel = m_scrbuf[i];
     f34:	19ef      	adds	r7, r5, r7
/home/manga/Projects/Pokitto/zboy-0.60/PokittoLib/POKITTO_CORE/PokittoDisplay.cpp:656
        uint16_t i = y*(width>>2) + (x>>2);
     f36:	18ad      	adds	r5, r5, r2
/home/manga/Projects/Pokitto/zboy-0.60/PokittoLib/POKITTO_CORE/PokittoDisplay.cpp:657
        uint8_t pixel = m_scrbuf[i];
     f38:	b23f      	sxth	r7, r7
     f3a:	b22d      	sxth	r5, r5
_ZN7Pokitto7Display11directPixelEsst():
/home/manga/Projects/Pokitto/zboy-0.60/PokittoLib/POKITTO_CORE/PokittoDisplay.cpp:657
     f3c:	2b0f      	cmp	r3, #15
/home/manga/Projects/Pokitto/zboy-0.60/PokittoLib/POKITTO_CORE/PokittoDisplay.cpp:659
        if (column==3) pixel = (pixel&0xFC)|(col); // bits 0-1
     f3e:	d804      	bhi.n	f4a <_ZN7Pokitto7Display12directBitmapEssPKhhh+0x1b6>
     f40:	493f      	ldr	r1, [pc, #252]	; (1040 <_ZN7Pokitto7Display12directBitmapEssPKhhh+0x2ac>)
     f42:	005b      	lsls	r3, r3, #1
     f44:	5acb      	ldrh	r3, [r1, r3]
     f46:	4553      	cmp	r3, sl
/home/manga/Projects/Pokitto/zboy-0.60/PokittoLib/POKITTO_CORE/PokittoDisplay.cpp:663
        m_scrbuf[i] = pixel;
     f48:	d093      	beq.n	e72 <_ZN7Pokitto7Display12directBitmapEssPKhhh+0xde>
/home/manga/Projects/Pokitto/zboy-0.60/PokittoLib/POKITTO_CORE/PokittoDisplay.cpp:1504
                uint8_t col = (r_val&0x1) | ((g_val&0x1)<<1) | ((b_val&0x1)<<2);
     f4a:	4652      	mov	r2, sl
     f4c:	9904      	ldr	r1, [sp, #16]
     f4e:	0038      	movs	r0, r7
     f50:	f002 fa92 	bl	3478 <_ZN7Pokitto8lcdPixelEsst>
     f54:	4643      	mov	r3, r8
     f56:	881b      	ldrh	r3, [r3, #0]
     f58:	2b0f      	cmp	r3, #15
     f5a:	d805      	bhi.n	f68 <_ZN7Pokitto7Display12directBitmapEssPKhhh+0x1d4>
     f5c:	4a38      	ldr	r2, [pc, #224]	; (1040 <_ZN7Pokitto7Display12directBitmapEssPKhhh+0x2ac>)
     f5e:	005b      	lsls	r3, r3, #1
     f60:	5ad3      	ldrh	r3, [r2, r3]
/home/manga/Projects/Pokitto/zboy-0.60/PokittoLib/POKITTO_CORE/PokittoDisplay.cpp:623
    if (col==invisiblecolor) return; // do not draw transparent pixels
     f62:	4553      	cmp	r3, sl
/home/manga/Projects/Pokitto/zboy-0.60/PokittoLib/POKITTO_CORE/PokittoDisplay.cpp:1505
                r_val >>= 1; g_val >>= 1; b_val >>= 1;
     f64:	d100      	bne.n	f68 <_ZN7Pokitto7Display12directBitmapEssPKhhh+0x1d4>
/home/manga/Projects/Pokitto/zboy-0.60/PokittoLib/POKITTO_CORE/PokittoDisplay.cpp:623
    if (col==invisiblecolor) return; // do not draw transparent pixels
     f66:	e784      	b.n	e72 <_ZN7Pokitto7Display12directBitmapEssPKhhh+0xde>
/home/manga/Projects/Pokitto/zboy-0.60/PokittoLib/POKITTO_CORE/PokittoDisplay.cpp:1505
                r_val >>= 1; g_val >>= 1; b_val >>= 1;
     f68:	4652      	mov	r2, sl
     f6a:	9904      	ldr	r1, [sp, #16]
     f6c:	0028      	movs	r0, r5
     f6e:	f002 fa83 	bl	3478 <_ZN7Pokitto8lcdPixelEsst>
/home/manga/Projects/Pokitto/zboy-0.60/PokittoLib/POKITTO_CORE/PokittoDisplay.cpp:623
    if (col==invisiblecolor) return; // do not draw transparent pixels
     f72:	4643      	mov	r3, r8
/home/manga/Projects/Pokitto/zboy-0.60/PokittoLib/POKITTO_CORE/PokittoDisplay.cpp:624
    if ((uint16_t)x >= width || (uint16_t)y >= height) return;
     f74:	881b      	ldrh	r3, [r3, #0]
     f76:	2b0f      	cmp	r3, #15
     f78:	d805      	bhi.n	f86 <_ZN7Pokitto7Display12directBitmapEssPKhhh+0x1f2>
     f7a:	4a31      	ldr	r2, [pc, #196]	; (1040 <_ZN7Pokitto7Display12directBitmapEssPKhhh+0x2ac>)
     f7c:	005b      	lsls	r3, r3, #1
     f7e:	5ad3      	ldrh	r3, [r2, r3]
     f80:	4553      	cmp	r3, sl
     f82:	d100      	bne.n	f86 <_ZN7Pokitto7Display12directBitmapEssPKhhh+0x1f2>
     f84:	e775      	b.n	e72 <_ZN7Pokitto7Display12directBitmapEssPKhhh+0xde>
     f86:	4652      	mov	r2, sl
     f88:	9905      	ldr	r1, [sp, #20]
     f8a:	0028      	movs	r0, r5
     f8c:	f002 fa74 	bl	3478 <_ZN7Pokitto8lcdPixelEsst>
     f90:	4643      	mov	r3, r8
     f92:	881b      	ldrh	r3, [r3, #0]
/home/manga/Projects/Pokitto/zboy-0.60/PokittoLib/POKITTO_CORE/PokittoDisplay.cpp:653
        if (col) {
     f94:	2b0f      	cmp	r3, #15
     f96:	d805      	bhi.n	fa4 <_ZN7Pokitto7Display12directBitmapEssPKhhh+0x210>
     f98:	4929      	ldr	r1, [pc, #164]	; (1040 <_ZN7Pokitto7Display12directBitmapEssPKhhh+0x2ac>)
     f9a:	005b      	lsls	r3, r3, #1
/home/manga/Projects/Pokitto/zboy-0.60/PokittoLib/POKITTO_CORE/PokittoDisplay.cpp:654
                col &= 3;
     f9c:	5acb      	ldrh	r3, [r1, r3]
     f9e:	4553      	cmp	r3, sl
     fa0:	d100      	bne.n	fa4 <_ZN7Pokitto7Display12directBitmapEssPKhhh+0x210>
/home/manga/Projects/Pokitto/zboy-0.60/PokittoLib/POKITTO_CORE/PokittoDisplay.cpp:656
        uint16_t i = y*(width>>2) + (x>>2);
     fa2:	e766      	b.n	e72 <_ZN7Pokitto7Display12directBitmapEssPKhhh+0xde>
     fa4:	4652      	mov	r2, sl
     fa6:	9905      	ldr	r1, [sp, #20]
     fa8:	0038      	movs	r0, r7
/home/manga/Projects/Pokitto/zboy-0.60/PokittoLib/POKITTO_CORE/PokittoDisplay.cpp:659
        if (column==3) pixel = (pixel&0xFC)|(col); // bits 0-1
     faa:	f002 fa65 	bl	3478 <_ZN7Pokitto8lcdPixelEsst>
/home/manga/Projects/Pokitto/zboy-0.60/PokittoLib/POKITTO_CORE/PokittoDisplay.cpp:657
        uint8_t pixel = m_scrbuf[i];
     fae:	3402      	adds	r4, #2
_ZN7Pokitto7Display12directBitmapEssPKhhh():
/home/manga/Projects/Pokitto/zboy-0.60/PokittoLib/POKITTO_CORE/PokittoDisplay.cpp:656
        uint16_t i = y*(width>>2) + (x>>2);
     fb0:	9b03      	ldr	r3, [sp, #12]
/home/manga/Projects/Pokitto/zboy-0.60/PokittoLib/POKITTO_CORE/PokittoDisplay.cpp:657
        uint8_t pixel = m_scrbuf[i];
     fb2:	b224      	sxth	r4, r4
     fb4:	3601      	adds	r6, #1
     fb6:	42a3      	cmp	r3, r4
/home/manga/Projects/Pokitto/zboy-0.60/PokittoLib/POKITTO_CORE/PokittoDisplay.cpp:659
        if (column==3) pixel = (pixel&0xFC)|(col); // bits 0-1
     fb8:	dd00      	ble.n	fbc <_ZN7Pokitto7Display12directBitmapEssPKhhh+0x228>
     fba:	e761      	b.n	e80 <_ZN7Pokitto7Display12directBitmapEssPKhhh+0xec>
     fbc:	9a08      	ldr	r2, [sp, #32]
     fbe:	990a      	ldr	r1, [sp, #40]	; 0x28
/home/manga/Projects/Pokitto/zboy-0.60/PokittoLib/POKITTO_CORE/PokittoDisplay.cpp:663
        m_scrbuf[i] = pixel;
     fc0:	0013      	movs	r3, r2
/home/manga/Projects/Pokitto/zboy-0.60/PokittoLib/POKITTO_CORE/PokittoDisplay.cpp:1504
                uint8_t col = (r_val&0x1) | ((g_val&0x1)<<1) | ((b_val&0x1)<<2);
     fc2:	468c      	mov	ip, r1
     fc4:	3201      	adds	r2, #1
     fc6:	b292      	uxth	r2, r2
     fc8:	4463      	add	r3, ip
     fca:	9208      	str	r2, [sp, #32]
     fcc:	9a09      	ldr	r2, [sp, #36]	; 0x24
     fce:	b21b      	sxth	r3, r3
     fd0:	4293      	cmp	r3, r2
     fd2:	da00      	bge.n	fd6 <_ZN7Pokitto7Display12directBitmapEssPKhhh+0x242>
     fd4:	e70f      	b.n	df6 <_ZN7Pokitto7Display12directBitmapEssPKhhh+0x62>
     fd6:	e6f3      	b.n	dc0 <_ZN7Pokitto7Display12directBitmapEssPKhhh+0x2c>
/home/manga/Projects/Pokitto/zboy-0.60/PokittoLib/POKITTO_CORE/PokittoDisplay.cpp:623
    if (col==invisiblecolor) return; // do not draw transparent pixels
     fd8:	2a00      	cmp	r2, #0
     fda:	d100      	bne.n	fde <_ZN7Pokitto7Display12directBitmapEssPKhhh+0x24a>
/home/manga/Projects/Pokitto/zboy-0.60/PokittoLib/POKITTO_CORE/PokittoDisplay.cpp:1504
                uint8_t col = (r_val&0x1) | ((g_val&0x1)<<1) | ((b_val&0x1)<<2);
     fdc:	e6f0      	b.n	dc0 <_ZN7Pokitto7Display12directBitmapEssPKhhh+0x2c>
/home/manga/Projects/Pokitto/zboy-0.60/PokittoLib/POKITTO_CORE/PokittoDisplay.cpp:1505
                r_val >>= 1; g_val >>= 1; b_val >>= 1;
     fde:	9909      	ldr	r1, [sp, #36]	; 0x24
     fe0:	2900      	cmp	r1, #0
     fe2:	d100      	bne.n	fe6 <_ZN7Pokitto7Display12directBitmapEssPKhhh+0x252>
/home/manga/Projects/Pokitto/zboy-0.60/PokittoLib/POKITTO_CORE/PokittoDisplay.cpp:623
    if (col==invisiblecolor) return; // do not draw transparent pixels
     fe4:	e6ec      	b.n	dc0 <_ZN7Pokitto7Display12directBitmapEssPKhhh+0x2c>
     fe6:	b283      	uxth	r3, r0
/home/manga/Projects/Pokitto/zboy-0.60/PokittoLib/POKITTO_CORE/PokittoDisplay.cpp:624
    if ((uint16_t)x >= width || (uint16_t)y >= height) return;
     fe8:	9309      	str	r3, [sp, #36]	; 0x24
     fea:	3301      	adds	r3, #1
     fec:	b29b      	uxth	r3, r3
     fee:	9308      	str	r3, [sp, #32]
     ff0:	1dd3      	adds	r3, r2, #7
     ff2:	10db      	asrs	r3, r3, #3
     ff4:	9302      	str	r3, [sp, #8]
     ff6:	2300      	movs	r3, #0
     ff8:	9306      	str	r3, [sp, #24]
     ffa:	4b12      	ldr	r3, [pc, #72]	; (1044 <_ZN7Pokitto7Display12directBitmapEssPKhhh+0x2b0>)
     ffc:	4699      	mov	r9, r3
     ffe:	4b0e      	ldr	r3, [pc, #56]	; (1038 <_ZN7Pokitto7Display12directBitmapEssPKhhh+0x2a4>)
    1000:	469a      	mov	sl, r3
_ZN7Pokitto7Display11directPixelEsst():
/home/manga/Projects/Pokitto/zboy-0.60/PokittoLib/POKITTO_CORE/PokittoDisplay.cpp:653
        if (col) {
    1002:	465b      	mov	r3, fp
    1004:	468b      	mov	fp, r1
    1006:	930a      	str	r3, [sp, #40]	; 0x28
_ZN7Pokitto7Display12directBitmapEssPKhhh():
/home/manga/Projects/Pokitto/zboy-0.60/PokittoLib/POKITTO_CORE/PokittoDisplay.cpp:654
                col &= 3;
    1008:	2307      	movs	r3, #7
    100a:	2280      	movs	r2, #128	; 0x80
/home/manga/Projects/Pokitto/zboy-0.60/PokittoLib/POKITTO_CORE/PokittoDisplay.cpp:656
        uint16_t i = y*(width>>2) + (x>>2);
    100c:	9906      	ldr	r1, [sp, #24]
    100e:	2400      	movs	r4, #0
    1010:	400b      	ands	r3, r1
    1012:	411a      	asrs	r2, r3
/home/manga/Projects/Pokitto/zboy-0.60/PokittoLib/POKITTO_CORE/PokittoDisplay.cpp:659
        if (column==3) pixel = (pixel&0xFC)|(col); // bits 0-1
    1014:	4690      	mov	r8, r2
/home/manga/Projects/Pokitto/zboy-0.60/PokittoLib/POKITTO_CORE/PokittoDisplay.cpp:657
        uint8_t pixel = m_scrbuf[i];
    1016:	9a08      	ldr	r2, [sp, #32]
/home/manga/Projects/Pokitto/zboy-0.60/PokittoLib/POKITTO_CORE/PokittoDisplay.cpp:656
        uint16_t i = y*(width>>2) + (x>>2);
    1018:	10ce      	asrs	r6, r1, #3
/home/manga/Projects/Pokitto/zboy-0.60/PokittoLib/POKITTO_CORE/PokittoDisplay.cpp:657
        uint8_t pixel = m_scrbuf[i];
    101a:	1e53      	subs	r3, r2, #1
    101c:	b21b      	sxth	r3, r3
    101e:	9305      	str	r3, [sp, #20]
/home/manga/Projects/Pokitto/zboy-0.60/PokittoLib/POKITTO_CORE/PokittoDisplay.cpp:659
        if (column==3) pixel = (pixel&0xFC)|(col); // bits 0-1
    1020:	b213      	sxth	r3, r2
    1022:	9a0a      	ldr	r2, [sp, #40]	; 0x28
    1024:	b276      	sxtb	r6, r6
/home/manga/Projects/Pokitto/zboy-0.60/PokittoLib/POKITTO_CORE/PokittoDisplay.cpp:663
        m_scrbuf[i] = pixel;
    1026:	4694      	mov	ip, r2
/home/manga/Projects/Pokitto/zboy-0.60/PokittoLib/POKITTO_CORE/PokittoDisplay.cpp:1504
                uint8_t col = (r_val&0x1) | ((g_val&0x1)<<1) | ((b_val&0x1)<<2);
    1028:	4466      	add	r6, ip
    102a:	0032      	movs	r2, r6
    102c:	9304      	str	r3, [sp, #16]
    102e:	4646      	mov	r6, r8
/home/manga/Projects/Pokitto/zboy-0.60/PokittoLib/POKITTO_CORE/PokittoDisplay.cpp:623
    if (col==invisiblecolor) return; // do not draw transparent pixels
    1030:	2300      	movs	r3, #0
    1032:	4690      	mov	r8, r2
    1034:	e04c      	b.n	10d0 <_ZN7Pokitto7Display12directBitmapEssPKhhh+0x33c>
    1036:	46c0      	nop			; (mov r8, r8)
    1038:	1000010a 	.word	0x1000010a
/home/manga/Projects/Pokitto/zboy-0.60/PokittoLib/POKITTO_CORE/PokittoDisplay.cpp:624
    if ((uint16_t)x >= width || (uint16_t)y >= height) return;
    103c:	10000264 	.word	0x10000264
    1040:	10001908 	.word	0x10001908
    1044:	10000106 	.word	0x10000106
    1048:	0065      	lsls	r5, r4, #1
    104a:	b2ad      	uxth	r5, r5
    104c:	186f      	adds	r7, r5, r1
    104e:	3101      	adds	r1, #1
    1050:	186d      	adds	r5, r5, r1
    1052:	b23f      	sxth	r7, r7
    1054:	b22d      	sxth	r5, r5
_ZN7Pokitto7Display11directPixelEsst():
/home/manga/Projects/Pokitto/zboy-0.60/PokittoLib/POKITTO_CORE/PokittoDisplay.cpp:624
    1056:	2b0f      	cmp	r3, #15
/home/manga/Projects/Pokitto/zboy-0.60/PokittoLib/POKITTO_CORE/PokittoDisplay.cpp:653
        if (col) {
    1058:	d804      	bhi.n	1064 <_ZN7Pokitto7Display12directBitmapEssPKhhh+0x2d0>
    105a:	493a      	ldr	r1, [pc, #232]	; (1144 <_ZN7Pokitto7Display12directBitmapEssPKhhh+0x3b0>)
/home/manga/Projects/Pokitto/zboy-0.60/PokittoLib/POKITTO_CORE/PokittoDisplay.cpp:654
                col &= 3;
    105c:	005b      	lsls	r3, r3, #1
    105e:	5a5b      	ldrh	r3, [r3, r1]
/home/manga/Projects/Pokitto/zboy-0.60/PokittoLib/POKITTO_CORE/PokittoDisplay.cpp:656
        uint16_t i = y*(width>>2) + (x>>2);
    1060:	4293      	cmp	r3, r2
    1062:	d030      	beq.n	10c6 <_ZN7Pokitto7Display12directBitmapEssPKhhh+0x332>
    1064:	0039      	movs	r1, r7
/home/manga/Projects/Pokitto/zboy-0.60/PokittoLib/POKITTO_CORE/PokittoDisplay.cpp:659
        if (column==3) pixel = (pixel&0xFC)|(col); // bits 0-1
    1066:	9805      	ldr	r0, [sp, #20]
/home/manga/Projects/Pokitto/zboy-0.60/PokittoLib/POKITTO_CORE/PokittoDisplay.cpp:656
        uint16_t i = y*(width>>2) + (x>>2);
    1068:	f002 fa06 	bl	3478 <_ZN7Pokitto8lcdPixelEsst>
_ZN7Pokitto7Display12directBitmapEssPKhhh():
/home/manga/Projects/Pokitto/zboy-0.60/PokittoLib/POKITTO_CORE/PokittoDisplay.cpp:656
    106c:	464b      	mov	r3, r9
/home/manga/Projects/Pokitto/zboy-0.60/PokittoLib/POKITTO_CORE/PokittoDisplay.cpp:657
        uint8_t pixel = m_scrbuf[i];
    106e:	881a      	ldrh	r2, [r3, #0]
_ZN7Pokitto7Display11directPixelEsst():
/home/manga/Projects/Pokitto/zboy-0.60/PokittoLib/POKITTO_CORE/PokittoDisplay.cpp:657
    1070:	4653      	mov	r3, sl
    1072:	881b      	ldrh	r3, [r3, #0]
/home/manga/Projects/Pokitto/zboy-0.60/PokittoLib/POKITTO_CORE/PokittoDisplay.cpp:659
        if (column==3) pixel = (pixel&0xFC)|(col); // bits 0-1
    1074:	2b0f      	cmp	r3, #15
    1076:	d804      	bhi.n	1082 <_ZN7Pokitto7Display12directBitmapEssPKhhh+0x2ee>
    1078:	4932      	ldr	r1, [pc, #200]	; (1144 <_ZN7Pokitto7Display12directBitmapEssPKhhh+0x3b0>)
/home/manga/Projects/Pokitto/zboy-0.60/PokittoLib/POKITTO_CORE/PokittoDisplay.cpp:663
        m_scrbuf[i] = pixel;
    107a:	005b      	lsls	r3, r3, #1
    107c:	5a5b      	ldrh	r3, [r3, r1]
    107e:	4293      	cmp	r3, r2
/home/manga/Projects/Pokitto/zboy-0.60/PokittoLib/POKITTO_CORE/PokittoDisplay.cpp:1494
        for (i = 0; i < w; i++) {
    1080:	d021      	beq.n	10c6 <_ZN7Pokitto7Display12directBitmapEssPKhhh+0x332>
    1082:	0039      	movs	r1, r7
    1084:	9804      	ldr	r0, [sp, #16]
    1086:	f002 f9f7 	bl	3478 <_ZN7Pokitto8lcdPixelEsst>
_ZN7Pokitto7Display12directBitmapEssPKhhh():
/home/manga/Projects/Pokitto/zboy-0.60/PokittoLib/POKITTO_CORE/PokittoDisplay.cpp:1494
    108a:	464b      	mov	r3, r9
    108c:	881a      	ldrh	r2, [r3, #0]
_ZN7Pokitto7Display11directPixelEsst():
/home/manga/Projects/Pokitto/zboy-0.60/PokittoLib/POKITTO_CORE/PokittoDisplay.cpp:1494
    108e:	4653      	mov	r3, sl
    1090:	881b      	ldrh	r3, [r3, #0]
    1092:	2b0f      	cmp	r3, #15
    1094:	d804      	bhi.n	10a0 <_ZN7Pokitto7Display12directBitmapEssPKhhh+0x30c>
    1096:	492b      	ldr	r1, [pc, #172]	; (1144 <_ZN7Pokitto7Display12directBitmapEssPKhhh+0x3b0>)
    1098:	005b      	lsls	r3, r3, #1
    109a:	5a5b      	ldrh	r3, [r3, r1]
/home/manga/Projects/Pokitto/zboy-0.60/PokittoLib/POKITTO_CORE/PokittoDisplay.cpp:1504
                uint8_t col = (r_val&0x1) | ((g_val&0x1)<<1) | ((b_val&0x1)<<2);
    109c:	4293      	cmp	r3, r2
    109e:	d012      	beq.n	10c6 <_ZN7Pokitto7Display12directBitmapEssPKhhh+0x332>
    10a0:	0029      	movs	r1, r5
    10a2:	9805      	ldr	r0, [sp, #20]
    10a4:	f002 f9e8 	bl	3478 <_ZN7Pokitto8lcdPixelEsst>
_ZN7Pokitto7Display12directBitmapEssPKhhh():
/home/manga/Projects/Pokitto/zboy-0.60/PokittoLib/POKITTO_CORE/PokittoDisplay.cpp:1504
    10a8:	464b      	mov	r3, r9
    10aa:	881a      	ldrh	r2, [r3, #0]
_ZN7Pokitto7Display11directPixelEsst():
/home/manga/Projects/Pokitto/zboy-0.60/PokittoLib/POKITTO_CORE/PokittoDisplay.cpp:623
    if (col==invisiblecolor) return; // do not draw transparent pixels
    10ac:	4653      	mov	r3, sl
/home/manga/Projects/Pokitto/zboy-0.60/PokittoLib/POKITTO_CORE/PokittoDisplay.cpp:1504
                uint8_t col = (r_val&0x1) | ((g_val&0x1)<<1) | ((b_val&0x1)<<2);
    10ae:	881b      	ldrh	r3, [r3, #0]
/home/manga/Projects/Pokitto/zboy-0.60/PokittoLib/POKITTO_CORE/PokittoDisplay.cpp:1505
                r_val >>= 1; g_val >>= 1; b_val >>= 1;
    10b0:	2b0f      	cmp	r3, #15
/home/manga/Projects/Pokitto/zboy-0.60/PokittoLib/POKITTO_CORE/PokittoDisplay.cpp:1504
                uint8_t col = (r_val&0x1) | ((g_val&0x1)<<1) | ((b_val&0x1)<<2);
    10b2:	d804      	bhi.n	10be <_ZN7Pokitto7Display12directBitmapEssPKhhh+0x32a>
/home/manga/Projects/Pokitto/zboy-0.60/PokittoLib/POKITTO_CORE/PokittoDisplay.cpp:1505
                r_val >>= 1; g_val >>= 1; b_val >>= 1;
    10b4:	4923      	ldr	r1, [pc, #140]	; (1144 <_ZN7Pokitto7Display12directBitmapEssPKhhh+0x3b0>)
    10b6:	005b      	lsls	r3, r3, #1
/home/manga/Projects/Pokitto/zboy-0.60/PokittoLib/POKITTO_CORE/PokittoDisplay.cpp:623
    if (col==invisiblecolor) return; // do not draw transparent pixels
    10b8:	5a5b      	ldrh	r3, [r3, r1]
    10ba:	4293      	cmp	r3, r2
/home/manga/Projects/Pokitto/zboy-0.60/PokittoLib/POKITTO_CORE/PokittoDisplay.cpp:624
    if ((uint16_t)x >= width || (uint16_t)y >= height) return;
    10bc:	d003      	beq.n	10c6 <_ZN7Pokitto7Display12directBitmapEssPKhhh+0x332>
    10be:	0029      	movs	r1, r5
    10c0:	9804      	ldr	r0, [sp, #16]
    10c2:	f002 f9d9 	bl	3478 <_ZN7Pokitto8lcdPixelEsst>
    10c6:	3401      	adds	r4, #1
    10c8:	b224      	sxth	r4, r4
_ZN7Pokitto7Display12directBitmapEssPKhhh():
/home/manga/Projects/Pokitto/zboy-0.60/PokittoLib/POKITTO_CORE/PokittoDisplay.cpp:624
    10ca:	0023      	movs	r3, r4
    10cc:	455c      	cmp	r4, fp
    10ce:	da21      	bge.n	1114 <_ZN7Pokitto7Display12directBitmapEssPKhhh+0x380>
    10d0:	9a02      	ldr	r2, [sp, #8]
    10d2:	4353      	muls	r3, r2
    10d4:	4642      	mov	r2, r8
    10d6:	5cd3      	ldrb	r3, [r2, r3]
    10d8:	421e      	tst	r6, r3
/home/manga/Projects/Pokitto/zboy-0.60/PokittoLib/POKITTO_CORE/PokittoDisplay.cpp:653
        if (col) {
    10da:	d0f4      	beq.n	10c6 <_ZN7Pokitto7Display12directBitmapEssPKhhh+0x332>
    10dc:	464b      	mov	r3, r9
    10de:	881a      	ldrh	r2, [r3, #0]
    10e0:	466b      	mov	r3, sp
    10e2:	8b99      	ldrh	r1, [r3, #28]
    10e4:	4653      	mov	r3, sl
/home/manga/Projects/Pokitto/zboy-0.60/PokittoLib/POKITTO_CORE/PokittoDisplay.cpp:656
        uint16_t i = y*(width>>2) + (x>>2);
    10e6:	9801      	ldr	r0, [sp, #4]
    10e8:	881b      	ldrh	r3, [r3, #0]
    10ea:	2801      	cmp	r0, #1
    10ec:	d1ac      	bne.n	1048 <_ZN7Pokitto7Display12directBitmapEssPKhhh+0x2b4>
    10ee:	9d06      	ldr	r5, [sp, #24]
/home/manga/Projects/Pokitto/zboy-0.60/PokittoLib/POKITTO_CORE/PokittoDisplay.cpp:660
        else if (column==2) pixel = (pixel&0xF3)|(col<<2); // bits 2-3
    10f0:	9809      	ldr	r0, [sp, #36]	; 0x24
/home/manga/Projects/Pokitto/zboy-0.60/PokittoLib/POKITTO_CORE/PokittoDisplay.cpp:656
        uint16_t i = y*(width>>2) + (x>>2);
    10f2:	46ac      	mov	ip, r5
/home/manga/Projects/Pokitto/zboy-0.60/PokittoLib/POKITTO_CORE/PokittoDisplay.cpp:657
        uint8_t pixel = m_scrbuf[i];
    10f4:	1909      	adds	r1, r1, r4
    10f6:	4460      	add	r0, ip
    10f8:	b200      	sxth	r0, r0
    10fa:	b209      	sxth	r1, r1
_ZN7Pokitto7Display11directPixelEsst():
/home/manga/Projects/Pokitto/zboy-0.60/PokittoLib/POKITTO_CORE/PokittoDisplay.cpp:660
        else if (column==2) pixel = (pixel&0xF3)|(col<<2); // bits 2-3
    10fc:	2b0f      	cmp	r3, #15
    10fe:	d8e0      	bhi.n	10c2 <_ZN7Pokitto7Display12directBitmapEssPKhhh+0x32e>
    1100:	4d10      	ldr	r5, [pc, #64]	; (1144 <_ZN7Pokitto7Display12directBitmapEssPKhhh+0x3b0>)
    1102:	005b      	lsls	r3, r3, #1
    1104:	5b5b      	ldrh	r3, [r3, r5]
/home/manga/Projects/Pokitto/zboy-0.60/PokittoLib/POKITTO_CORE/PokittoDisplay.cpp:663
        m_scrbuf[i] = pixel;
    1106:	4293      	cmp	r3, r2
/home/manga/Projects/Pokitto/zboy-0.60/PokittoLib/POKITTO_CORE/PokittoDisplay.cpp:1504
                uint8_t col = (r_val&0x1) | ((g_val&0x1)<<1) | ((b_val&0x1)<<2);
    1108:	d1db      	bne.n	10c2 <_ZN7Pokitto7Display12directBitmapEssPKhhh+0x32e>
    110a:	3401      	adds	r4, #1
    110c:	b224      	sxth	r4, r4
_ZN7Pokitto7Display12directBitmapEssPKhhh():
/home/manga/Projects/Pokitto/zboy-0.60/PokittoLib/POKITTO_CORE/PokittoDisplay.cpp:1504
    110e:	0023      	movs	r3, r4
    1110:	455c      	cmp	r4, fp
    1112:	dbdd      	blt.n	10d0 <_ZN7Pokitto7Display12directBitmapEssPKhhh+0x33c>
    1114:	9b06      	ldr	r3, [sp, #24]
    1116:	3301      	adds	r3, #1
    1118:	b21a      	sxth	r2, r3
    111a:	9b08      	ldr	r3, [sp, #32]
/home/manga/Projects/Pokitto/zboy-0.60/PokittoLib/POKITTO_CORE/PokittoDisplay.cpp:623
    if (col==invisiblecolor) return; // do not draw transparent pixels
    111c:	9206      	str	r2, [sp, #24]
    111e:	3302      	adds	r3, #2
/home/manga/Projects/Pokitto/zboy-0.60/PokittoLib/POKITTO_CORE/PokittoDisplay.cpp:1505
                r_val >>= 1; g_val >>= 1; b_val >>= 1;
    1120:	b29b      	uxth	r3, r3
    1122:	9308      	str	r3, [sp, #32]
    1124:	9b03      	ldr	r3, [sp, #12]
/home/manga/Projects/Pokitto/zboy-0.60/PokittoLib/POKITTO_CORE/PokittoDisplay.cpp:623
    if (col==invisiblecolor) return; // do not draw transparent pixels
    1126:	4293      	cmp	r3, r2
    1128:	dd00      	ble.n	112c <_ZN7Pokitto7Display12directBitmapEssPKhhh+0x398>
/home/manga/Projects/Pokitto/zboy-0.60/PokittoLib/POKITTO_CORE/PokittoDisplay.cpp:624
    if ((uint16_t)x >= width || (uint16_t)y >= height) return;
    112a:	e76d      	b.n	1008 <_ZN7Pokitto7Display12directBitmapEssPKhhh+0x274>
    112c:	e648      	b.n	dc0 <_ZN7Pokitto7Display12directBitmapEssPKhhh+0x2c>
    112e:	200f      	movs	r0, #15
    1130:	4002      	ands	r2, r0
    1132:	4660      	mov	r0, ip
    1134:	0052      	lsls	r2, r2, #1
    1136:	5a12      	ldrh	r2, [r2, r0]
    1138:	9807      	ldr	r0, [sp, #28]
    113a:	4684      	mov	ip, r0
    113c:	4465      	add	r5, ip
    113e:	b228      	sxth	r0, r5
    1140:	e691      	b.n	e66 <_ZN7Pokitto7Display12directBitmapEssPKhhh+0xd2>
    1142:	46c0      	nop			; (mov r8, r8)
    1144:	10001908 	.word	0x10001908

00001148 <_ZN7Pokitto7Display10directCharEsst>:
_ZN7Pokitto7Display10directCharEsst():
/home/manga/Projects/Pokitto/zboy-0.60/PokittoLib/POKITTO_CORE/PokittoDisplay.cpp:624
    1148:	b5f0      	push	{r4, r5, r6, r7, lr}
/home/manga/Projects/Pokitto/zboy-0.60/PokittoLib/POKITTO_CORE/PokittoDisplay.cpp:653
        if (col) {
    114a:	46de      	mov	lr, fp
    114c:	4657      	mov	r7, sl
    114e:	4645      	mov	r5, r8
    1150:	464e      	mov	r6, r9
    1152:	b5e0      	push	{r5, r6, r7, lr}
/home/manga/Projects/Pokitto/zboy-0.60/PokittoLib/POKITTO_CORE/PokittoDisplay.cpp:656
        uint16_t i = y*(width>>2) + (x>>2);
    1154:	4b7b      	ldr	r3, [pc, #492]	; (1344 <_ZN7Pokitto7Display10directCharEsst+0x1fc>)
    1156:	000c      	movs	r4, r1
    1158:	681b      	ldr	r3, [r3, #0]
    115a:	25f7      	movs	r5, #247	; 0xf7
/home/manga/Projects/Pokitto/zboy-0.60/PokittoLib/POKITTO_CORE/PokittoDisplay.cpp:660
        else if (column==2) pixel = (pixel&0xF3)|(col<<2); // bits 2-3
    115c:	7859      	ldrb	r1, [r3, #1]
/home/manga/Projects/Pokitto/zboy-0.60/PokittoLib/POKITTO_CORE/PokittoDisplay.cpp:656
        uint16_t i = y*(width>>2) + (x>>2);
    115e:	b08d      	sub	sp, #52	; 0x34
    1160:	468a      	mov	sl, r1
/home/manga/Projects/Pokitto/zboy-0.60/PokittoLib/POKITTO_CORE/PokittoDisplay.cpp:657
        uint8_t pixel = m_scrbuf[i];
    1162:	3908      	subs	r1, #8
    1164:	4029      	ands	r1, r5
    1166:	1e4d      	subs	r5, r1, #1
    1168:	41a9      	sbcs	r1, r5
/home/manga/Projects/Pokitto/zboy-0.60/PokittoLib/POKITTO_CORE/PokittoDisplay.cpp:660
        else if (column==2) pixel = (pixel&0xF3)|(col<<2); // bits 2-3
    116a:	4655      	mov	r5, sl
    116c:	10ed      	asrs	r5, r5, #3
    116e:	1949      	adds	r1, r1, r5
    1170:	000d      	movs	r5, r1
    1172:	9109      	str	r1, [sp, #36]	; 0x24
/home/manga/Projects/Pokitto/zboy-0.60/PokittoLib/POKITTO_CORE/PokittoDisplay.cpp:663
        m_scrbuf[i] = pixel;
    1174:	7819      	ldrb	r1, [r3, #0]
/home/manga/Projects/Pokitto/zboy-0.60/PokittoLib/POKITTO_CORE/PokittoDisplay.cpp:1504
                uint8_t col = (r_val&0x1) | ((g_val&0x1)<<1) | ((b_val&0x1)<<2);
    1176:	4369      	muls	r1, r5
    1178:	3101      	adds	r1, #1
    117a:	434a      	muls	r2, r1
    117c:	3204      	adds	r2, #4
    117e:	189b      	adds	r3, r3, r2
    1180:	1c5a      	adds	r2, r3, #1
/home/manga/Projects/Pokitto/zboy-0.60/PokittoLib/POKITTO_CORE/PokittoDisplay.cpp:623
    if (col==invisiblecolor) return; // do not draw transparent pixels
    1182:	781b      	ldrb	r3, [r3, #0]
/home/manga/Projects/Pokitto/zboy-0.60/PokittoLib/POKITTO_CORE/PokittoDisplay.cpp:1504
                uint8_t col = (r_val&0x1) | ((g_val&0x1)<<1) | ((b_val&0x1)<<2);
    1184:	4970      	ldr	r1, [pc, #448]	; (1348 <_ZN7Pokitto7Display10directCharEsst+0x200>)
    1186:	9205      	str	r2, [sp, #20]
    1188:	b25a      	sxtb	r2, r3
/home/manga/Projects/Pokitto/zboy-0.60/PokittoLib/POKITTO_CORE/PokittoDisplay.cpp:623
    if (col==invisiblecolor) return; // do not draw transparent pixels
    118a:	468b      	mov	fp, r1
/home/manga/Projects/Pokitto/zboy-0.60/PokittoLib/POKITTO_CORE/PokittoDisplay.cpp:1505
                r_val >>= 1; g_val >>= 1; b_val >>= 1;
    118c:	920b      	str	r2, [sp, #44]	; 0x2c
    118e:	7809      	ldrb	r1, [r1, #0]
    1190:	2a00      	cmp	r2, #0
/home/manga/Projects/Pokitto/zboy-0.60/PokittoLib/POKITTO_CORE/PokittoDisplay.cpp:1504
                uint8_t col = (r_val&0x1) | ((g_val&0x1)<<1) | ((b_val&0x1)<<2);
    1192:	dc00      	bgt.n	1196 <_ZN7Pokitto7Display10directCharEsst+0x4e>
/home/manga/Projects/Pokitto/zboy-0.60/PokittoLib/POKITTO_CORE/PokittoDisplay.cpp:1505
                r_val >>= 1; g_val >>= 1; b_val >>= 1;
    1194:	e0c8      	b.n	1328 <_ZN7Pokitto7Display10directCharEsst+0x1e0>
    1196:	b282      	uxth	r2, r0
/home/manga/Projects/Pokitto/zboy-0.60/PokittoLib/POKITTO_CORE/PokittoDisplay.cpp:623
    if (col==invisiblecolor) return; // do not draw transparent pixels
    1198:	4691      	mov	r9, r2
    119a:	3201      	adds	r2, #1
/home/manga/Projects/Pokitto/zboy-0.60/PokittoLib/POKITTO_CORE/PokittoDisplay.cpp:624
    if ((uint16_t)x >= width || (uint16_t)y >= height) return;
    119c:	9207      	str	r2, [sp, #28]
    119e:	b292      	uxth	r2, r2
    11a0:	4694      	mov	ip, r2
    11a2:	3b01      	subs	r3, #1
    11a4:	b2db      	uxtb	r3, r3
    11a6:	4463      	add	r3, ip
    11a8:	b29b      	uxth	r3, r3
    11aa:	9204      	str	r2, [sp, #16]
    11ac:	930a      	str	r3, [sp, #40]	; 0x28
    11ae:	b2a2      	uxth	r2, r4
    11b0:	4653      	mov	r3, sl
    11b2:	4694      	mov	ip, r2
    11b4:	3b01      	subs	r3, #1
    11b6:	4463      	add	r3, ip
    11b8:	9203      	str	r2, [sp, #12]
    11ba:	9308      	str	r3, [sp, #32]
/home/manga/Projects/Pokitto/zboy-0.60/PokittoLib/POKITTO_CORE/PokittoDisplay.cpp:653
        if (col) {
    11bc:	9a09      	ldr	r2, [sp, #36]	; 0x24
    11be:	9b05      	ldr	r3, [sp, #20]
    11c0:	000d      	movs	r5, r1
    11c2:	781e      	ldrb	r6, [r3, #0]
    11c4:	2a02      	cmp	r2, #2
/home/manga/Projects/Pokitto/zboy-0.60/PokittoLib/POKITTO_CORE/PokittoDisplay.cpp:656
        uint16_t i = y*(width>>2) + (x>>2);
    11c6:	d100      	bne.n	11ca <_ZN7Pokitto7Display10directCharEsst+0x82>
    11c8:	e094      	b.n	12f4 <_ZN7Pokitto7Display10directCharEsst+0x1ac>
    11ca:	3301      	adds	r3, #1
    11cc:	9305      	str	r3, [sp, #20]
    11ce:	b2b6      	uxth	r6, r6
/home/manga/Projects/Pokitto/zboy-0.60/PokittoLib/POKITTO_CORE/PokittoDisplay.cpp:660
        else if (column==2) pixel = (pixel&0xF3)|(col<<2); // bits 2-3
    11d0:	4653      	mov	r3, sl
/home/manga/Projects/Pokitto/zboy-0.60/PokittoLib/POKITTO_CORE/PokittoDisplay.cpp:656
        uint16_t i = y*(width>>2) + (x>>2);
    11d2:	2b00      	cmp	r3, #0
/home/manga/Projects/Pokitto/zboy-0.60/PokittoLib/POKITTO_CORE/PokittoDisplay.cpp:657
        uint8_t pixel = m_scrbuf[i];
    11d4:	d100      	bne.n	11d8 <_ZN7Pokitto7Display10directCharEsst+0x90>
    11d6:	e07a      	b.n	12ce <_ZN7Pokitto7Display10directCharEsst+0x186>
    11d8:	9a04      	ldr	r2, [sp, #16]
    11da:	2400      	movs	r4, #0
/home/manga/Projects/Pokitto/zboy-0.60/PokittoLib/POKITTO_CORE/PokittoDisplay.cpp:660
        else if (column==2) pixel = (pixel&0xF3)|(col<<2); // bits 2-3
    11dc:	1e53      	subs	r3, r2, #1
    11de:	b21b      	sxth	r3, r3
    11e0:	9302      	str	r3, [sp, #8]
    11e2:	b213      	sxth	r3, r2
    11e4:	9301      	str	r3, [sp, #4]
/home/manga/Projects/Pokitto/zboy-0.60/PokittoLib/POKITTO_CORE/PokittoDisplay.cpp:663
        m_scrbuf[i] = pixel;
    11e6:	4f59      	ldr	r7, [pc, #356]	; (134c <_ZN7Pokitto7Display10directCharEsst+0x204>)
/home/manga/Projects/Pokitto/zboy-0.60/PokittoLib/POKITTO_CORE/PokittoDisplay.cpp:1504
                uint8_t col = (r_val&0x1) | ((g_val&0x1)<<1) | ((b_val&0x1)<<2);
    11e8:	e021      	b.n	122e <_ZN7Pokitto7Display10directCharEsst+0xe6>
    11ea:	4a59      	ldr	r2, [pc, #356]	; (1350 <_ZN7Pokitto7Display10directCharEsst+0x208>)
    11ec:	b2a1      	uxth	r1, r4
    11ee:	4690      	mov	r8, r2
    11f0:	8812      	ldrh	r2, [r2, #0]
    11f2:	2d02      	cmp	r5, #2
    11f4:	d026      	beq.n	1244 <_ZN7Pokitto7Display10directCharEsst+0xfc>
    11f6:	4648      	mov	r0, r9
    11f8:	b200      	sxth	r0, r0
/home/manga/Projects/Pokitto/zboy-0.60/PokittoLib/POKITTO_CORE/PokittoDisplay.cpp:623
    if (col==invisiblecolor) return; // do not draw transparent pixels
    11fa:	4684      	mov	ip, r0
/home/manga/Projects/Pokitto/zboy-0.60/PokittoLib/POKITTO_CORE/PokittoDisplay.cpp:1504
                uint8_t col = (r_val&0x1) | ((g_val&0x1)<<1) | ((b_val&0x1)<<2);
    11fc:	4855      	ldr	r0, [pc, #340]	; (1354 <_ZN7Pokitto7Display10directCharEsst+0x20c>)
    11fe:	7800      	ldrb	r0, [r0, #0]
    1200:	2800      	cmp	r0, #0
/home/manga/Projects/Pokitto/zboy-0.60/PokittoLib/POKITTO_CORE/PokittoDisplay.cpp:623
    if (col==invisiblecolor) return; // do not draw transparent pixels
    1202:	d100      	bne.n	1206 <_ZN7Pokitto7Display10directCharEsst+0xbe>
/home/manga/Projects/Pokitto/zboy-0.60/PokittoLib/POKITTO_CORE/PokittoDisplay.cpp:1505
                r_val >>= 1; g_val >>= 1; b_val >>= 1;
    1204:	e07d      	b.n	1302 <_ZN7Pokitto7Display10directCharEsst+0x1ba>
    1206:	9808      	ldr	r0, [sp, #32]
    1208:	1a40      	subs	r0, r0, r1
    120a:	b200      	sxth	r0, r0
_ZN7Pokitto7Display11directPixelEsst():
/home/manga/Projects/Pokitto/zboy-0.60/PokittoLib/POKITTO_CORE/PokittoDisplay.cpp:1505
    120c:	2b0f      	cmp	r3, #15
/home/manga/Projects/Pokitto/zboy-0.60/PokittoLib/POKITTO_CORE/PokittoDisplay.cpp:623
    if (col==invisiblecolor) return; // do not draw transparent pixels
    120e:	d804      	bhi.n	121a <_ZN7Pokitto7Display10directCharEsst+0xd2>
    1210:	4951      	ldr	r1, [pc, #324]	; (1358 <_ZN7Pokitto7Display10directCharEsst+0x210>)
/home/manga/Projects/Pokitto/zboy-0.60/PokittoLib/POKITTO_CORE/PokittoDisplay.cpp:624
    if ((uint16_t)x >= width || (uint16_t)y >= height) return;
    1212:	005b      	lsls	r3, r3, #1
    1214:	5a5b      	ldrh	r3, [r3, r1]
    1216:	4293      	cmp	r3, r2
    1218:	d004      	beq.n	1224 <_ZN7Pokitto7Display10directCharEsst+0xdc>
    121a:	4661      	mov	r1, ip
    121c:	f002 f92c 	bl	3478 <_ZN7Pokitto8lcdPixelEsst>
    1220:	465b      	mov	r3, fp
    1222:	781d      	ldrb	r5, [r3, #0]
    1224:	3401      	adds	r4, #1
    1226:	b264      	sxtb	r4, r4
_ZN7Pokitto7Display10directCharEsst():
/home/manga/Projects/Pokitto/zboy-0.60/PokittoLib/POKITTO_CORE/PokittoDisplay.cpp:624
    1228:	0876      	lsrs	r6, r6, #1
    122a:	45a2      	cmp	sl, r4
    122c:	dd4f      	ble.n	12ce <_ZN7Pokitto7Display10directCharEsst+0x186>
    122e:	883b      	ldrh	r3, [r7, #0]
    1230:	07f2      	lsls	r2, r6, #31
/home/manga/Projects/Pokitto/zboy-0.60/PokittoLib/POKITTO_CORE/PokittoDisplay.cpp:653
        if (col) {
    1232:	d4da      	bmi.n	11ea <_ZN7Pokitto7Display10directCharEsst+0xa2>
    1234:	4a49      	ldr	r2, [pc, #292]	; (135c <_ZN7Pokitto7Display10directCharEsst+0x214>)
    1236:	4690      	mov	r8, r2
    1238:	8812      	ldrh	r2, [r2, #0]
/home/manga/Projects/Pokitto/zboy-0.60/PokittoLib/POKITTO_CORE/PokittoDisplay.cpp:656
        uint16_t i = y*(width>>2) + (x>>2);
    123a:	429a      	cmp	r2, r3
    123c:	d0f2      	beq.n	1224 <_ZN7Pokitto7Display10directCharEsst+0xdc>
    123e:	b2a1      	uxth	r1, r4
    1240:	2d02      	cmp	r5, #2
/home/manga/Projects/Pokitto/zboy-0.60/PokittoLib/POKITTO_CORE/PokittoDisplay.cpp:660
        else if (column==2) pixel = (pixel&0xF3)|(col<<2); // bits 2-3
    1242:	d1d8      	bne.n	11f6 <_ZN7Pokitto7Display10directCharEsst+0xae>
/home/manga/Projects/Pokitto/zboy-0.60/PokittoLib/POKITTO_CORE/PokittoDisplay.cpp:656
        uint16_t i = y*(width>>2) + (x>>2);
    1244:	9803      	ldr	r0, [sp, #12]
    1246:	0049      	lsls	r1, r1, #1
/home/manga/Projects/Pokitto/zboy-0.60/PokittoLib/POKITTO_CORE/PokittoDisplay.cpp:657
        uint8_t pixel = m_scrbuf[i];
    1248:	4684      	mov	ip, r0
    124a:	4461      	add	r1, ip
    124c:	b28d      	uxth	r5, r1
    124e:	b229      	sxth	r1, r5
/home/manga/Projects/Pokitto/zboy-0.60/PokittoLib/POKITTO_CORE/PokittoDisplay.cpp:660
        else if (column==2) pixel = (pixel&0xF3)|(col<<2); // bits 2-3
    1250:	3501      	adds	r5, #1
    1252:	9106      	str	r1, [sp, #24]
    1254:	b22d      	sxth	r5, r5
_ZN7Pokitto7Display11directPixelEsst():
/home/manga/Projects/Pokitto/zboy-0.60/PokittoLib/POKITTO_CORE/PokittoDisplay.cpp:660
    1256:	2b0f      	cmp	r3, #15
    1258:	d804      	bhi.n	1264 <_ZN7Pokitto7Display10directCharEsst+0x11c>
/home/manga/Projects/Pokitto/zboy-0.60/PokittoLib/POKITTO_CORE/PokittoDisplay.cpp:663
        m_scrbuf[i] = pixel;
    125a:	493f      	ldr	r1, [pc, #252]	; (1358 <_ZN7Pokitto7Display10directCharEsst+0x210>)
/home/manga/Projects/Pokitto/zboy-0.60/PokittoLib/POKITTO_CORE/PokittoDisplay.cpp:1504
                uint8_t col = (r_val&0x1) | ((g_val&0x1)<<1) | ((b_val&0x1)<<2);
    125c:	005b      	lsls	r3, r3, #1
    125e:	5a5b      	ldrh	r3, [r3, r1]
    1260:	4293      	cmp	r3, r2
    1262:	d05d      	beq.n	1320 <_ZN7Pokitto7Display10directCharEsst+0x1d8>
    1264:	9906      	ldr	r1, [sp, #24]
    1266:	9802      	ldr	r0, [sp, #8]
    1268:	f002 f906 	bl	3478 <_ZN7Pokitto8lcdPixelEsst>
_ZN7Pokitto7Display10directCharEsst():
/home/manga/Projects/Pokitto/zboy-0.60/PokittoLib/POKITTO_CORE/PokittoDisplay.cpp:1504
    126c:	4643      	mov	r3, r8
/home/manga/Projects/Pokitto/zboy-0.60/PokittoLib/POKITTO_CORE/PokittoDisplay.cpp:623
    if (col==invisiblecolor) return; // do not draw transparent pixels
    126e:	881a      	ldrh	r2, [r3, #0]
_ZN7Pokitto7Display11directPixelEsst():
/home/manga/Projects/Pokitto/zboy-0.60/PokittoLib/POKITTO_CORE/PokittoDisplay.cpp:1504
                uint8_t col = (r_val&0x1) | ((g_val&0x1)<<1) | ((b_val&0x1)<<2);
    1270:	883b      	ldrh	r3, [r7, #0]
    1272:	2b0f      	cmp	r3, #15
    1274:	d804      	bhi.n	1280 <_ZN7Pokitto7Display10directCharEsst+0x138>
/home/manga/Projects/Pokitto/zboy-0.60/PokittoLib/POKITTO_CORE/PokittoDisplay.cpp:623
    if (col==invisiblecolor) return; // do not draw transparent pixels
    1276:	4938      	ldr	r1, [pc, #224]	; (1358 <_ZN7Pokitto7Display10directCharEsst+0x210>)
/home/manga/Projects/Pokitto/zboy-0.60/PokittoLib/POKITTO_CORE/PokittoDisplay.cpp:1505
                r_val >>= 1; g_val >>= 1; b_val >>= 1;
    1278:	005b      	lsls	r3, r3, #1
    127a:	5a5b      	ldrh	r3, [r3, r1]
    127c:	4293      	cmp	r3, r2
    127e:	d04f      	beq.n	1320 <_ZN7Pokitto7Display10directCharEsst+0x1d8>
    1280:	9906      	ldr	r1, [sp, #24]
/home/manga/Projects/Pokitto/zboy-0.60/PokittoLib/POKITTO_CORE/PokittoDisplay.cpp:623
    if (col==invisiblecolor) return; // do not draw transparent pixels
    1282:	9801      	ldr	r0, [sp, #4]
    1284:	f002 f8f8 	bl	3478 <_ZN7Pokitto8lcdPixelEsst>
_ZN7Pokitto7Display10directCharEsst():
/home/manga/Projects/Pokitto/zboy-0.60/PokittoLib/POKITTO_CORE/PokittoDisplay.cpp:624
    if ((uint16_t)x >= width || (uint16_t)y >= height) return;
    1288:	4643      	mov	r3, r8
    128a:	881a      	ldrh	r2, [r3, #0]
_ZN7Pokitto7Display11directPixelEsst():
/home/manga/Projects/Pokitto/zboy-0.60/PokittoLib/POKITTO_CORE/PokittoDisplay.cpp:624
    128c:	883b      	ldrh	r3, [r7, #0]
    128e:	2b0f      	cmp	r3, #15
    1290:	d804      	bhi.n	129c <_ZN7Pokitto7Display10directCharEsst+0x154>
    1292:	4931      	ldr	r1, [pc, #196]	; (1358 <_ZN7Pokitto7Display10directCharEsst+0x210>)
    1294:	005b      	lsls	r3, r3, #1
    1296:	5a5b      	ldrh	r3, [r3, r1]
    1298:	4293      	cmp	r3, r2
    129a:	d041      	beq.n	1320 <_ZN7Pokitto7Display10directCharEsst+0x1d8>
    129c:	0029      	movs	r1, r5
    129e:	9802      	ldr	r0, [sp, #8]
    12a0:	f002 f8ea 	bl	3478 <_ZN7Pokitto8lcdPixelEsst>
_ZN7Pokitto7Display10directCharEsst():
/home/manga/Projects/Pokitto/zboy-0.60/PokittoLib/POKITTO_CORE/PokittoDisplay.cpp:624
    12a4:	4643      	mov	r3, r8
/home/manga/Projects/Pokitto/zboy-0.60/PokittoLib/POKITTO_CORE/PokittoDisplay.cpp:653
        if (col) {
    12a6:	881a      	ldrh	r2, [r3, #0]
_ZN7Pokitto7Display11directPixelEsst():
/home/manga/Projects/Pokitto/zboy-0.60/PokittoLib/POKITTO_CORE/PokittoDisplay.cpp:653
    12a8:	883b      	ldrh	r3, [r7, #0]
    12aa:	2b0f      	cmp	r3, #15
    12ac:	d804      	bhi.n	12b8 <_ZN7Pokitto7Display10directCharEsst+0x170>
    12ae:	492a      	ldr	r1, [pc, #168]	; (1358 <_ZN7Pokitto7Display10directCharEsst+0x210>)
/home/manga/Projects/Pokitto/zboy-0.60/PokittoLib/POKITTO_CORE/PokittoDisplay.cpp:656
        uint16_t i = y*(width>>2) + (x>>2);
    12b0:	005b      	lsls	r3, r3, #1
    12b2:	5a5b      	ldrh	r3, [r3, r1]
    12b4:	4293      	cmp	r3, r2
    12b6:	d033      	beq.n	1320 <_ZN7Pokitto7Display10directCharEsst+0x1d8>
    12b8:	0029      	movs	r1, r5
/home/manga/Projects/Pokitto/zboy-0.60/PokittoLib/POKITTO_CORE/PokittoDisplay.cpp:660
        else if (column==2) pixel = (pixel&0xF3)|(col<<2); // bits 2-3
    12ba:	9801      	ldr	r0, [sp, #4]
/home/manga/Projects/Pokitto/zboy-0.60/PokittoLib/POKITTO_CORE/PokittoDisplay.cpp:656
        uint16_t i = y*(width>>2) + (x>>2);
    12bc:	f002 f8dc 	bl	3478 <_ZN7Pokitto8lcdPixelEsst>
/home/manga/Projects/Pokitto/zboy-0.60/PokittoLib/POKITTO_CORE/PokittoDisplay.cpp:657
        uint8_t pixel = m_scrbuf[i];
    12c0:	465b      	mov	r3, fp
    12c2:	3401      	adds	r4, #1
    12c4:	b264      	sxtb	r4, r4
/home/manga/Projects/Pokitto/zboy-0.60/PokittoLib/POKITTO_CORE/PokittoDisplay.cpp:660
        else if (column==2) pixel = (pixel&0xF3)|(col<<2); // bits 2-3
    12c6:	781d      	ldrb	r5, [r3, #0]
_ZN7Pokitto7Display10directCharEsst():
/home/manga/Projects/Pokitto/zboy-0.60/PokittoLib/POKITTO_CORE/PokittoDisplay.cpp:660
    12c8:	0876      	lsrs	r6, r6, #1
    12ca:	45a2      	cmp	sl, r4
    12cc:	dcaf      	bgt.n	122e <_ZN7Pokitto7Display10directCharEsst+0xe6>
    12ce:	466b      	mov	r3, sp
/home/manga/Projects/Pokitto/zboy-0.60/PokittoLib/POKITTO_CORE/PokittoDisplay.cpp:663
        m_scrbuf[i] = pixel;
    12d0:	8b9b      	ldrh	r3, [r3, #28]
/home/manga/Projects/Pokitto/zboy-0.60/PokittoLib/POKITTO_CORE/PokittoDisplay.cpp:1504
                uint8_t col = (r_val&0x1) | ((g_val&0x1)<<1) | ((b_val&0x1)<<2);
    12d2:	4699      	mov	r9, r3
    12d4:	9b04      	ldr	r3, [sp, #16]
    12d6:	3302      	adds	r3, #2
    12d8:	b29b      	uxth	r3, r3
    12da:	9304      	str	r3, [sp, #16]
    12dc:	9b0a      	ldr	r3, [sp, #40]	; 0x28
    12de:	4599      	cmp	r9, r3
    12e0:	d021      	beq.n	1326 <_ZN7Pokitto7Display10directCharEsst+0x1de>
    12e2:	464b      	mov	r3, r9
/home/manga/Projects/Pokitto/zboy-0.60/PokittoLib/POKITTO_CORE/PokittoDisplay.cpp:623
    if (col==invisiblecolor) return; // do not draw transparent pixels
    12e4:	3301      	adds	r3, #1
/home/manga/Projects/Pokitto/zboy-0.60/PokittoLib/POKITTO_CORE/PokittoDisplay.cpp:1504
                uint8_t col = (r_val&0x1) | ((g_val&0x1)<<1) | ((b_val&0x1)<<2);
    12e6:	9307      	str	r3, [sp, #28]
    12e8:	9a09      	ldr	r2, [sp, #36]	; 0x24
    12ea:	9b05      	ldr	r3, [sp, #20]
/home/manga/Projects/Pokitto/zboy-0.60/PokittoLib/POKITTO_CORE/PokittoDisplay.cpp:623
    if (col==invisiblecolor) return; // do not draw transparent pixels
    12ec:	781e      	ldrb	r6, [r3, #0]
/home/manga/Projects/Pokitto/zboy-0.60/PokittoLib/POKITTO_CORE/PokittoDisplay.cpp:1505
                r_val >>= 1; g_val >>= 1; b_val >>= 1;
    12ee:	2a02      	cmp	r2, #2
    12f0:	d000      	beq.n	12f4 <_ZN7Pokitto7Display10directCharEsst+0x1ac>
    12f2:	e76a      	b.n	11ca <_ZN7Pokitto7Display10directCharEsst+0x82>
    12f4:	001a      	movs	r2, r3
    12f6:	785b      	ldrb	r3, [r3, #1]
/home/manga/Projects/Pokitto/zboy-0.60/PokittoLib/POKITTO_CORE/PokittoDisplay.cpp:623
    if (col==invisiblecolor) return; // do not draw transparent pixels
    12f8:	021b      	lsls	r3, r3, #8
    12fa:	431e      	orrs	r6, r3
/home/manga/Projects/Pokitto/zboy-0.60/PokittoLib/POKITTO_CORE/PokittoDisplay.cpp:624
    if ((uint16_t)x >= width || (uint16_t)y >= height) return;
    12fc:	1c93      	adds	r3, r2, #2
    12fe:	9305      	str	r3, [sp, #20]
    1300:	e766      	b.n	11d0 <_ZN7Pokitto7Display10directCharEsst+0x88>
    1302:	9803      	ldr	r0, [sp, #12]
    1304:	4680      	mov	r8, r0
    1306:	4441      	add	r1, r8
    1308:	b209      	sxth	r1, r1
_ZN7Pokitto7Display11directPixelEsst():
/home/manga/Projects/Pokitto/zboy-0.60/PokittoLib/POKITTO_CORE/PokittoDisplay.cpp:624
    130a:	2b0f      	cmp	r3, #15
    130c:	d805      	bhi.n	131a <_ZN7Pokitto7Display10directCharEsst+0x1d2>
    130e:	4812      	ldr	r0, [pc, #72]	; (1358 <_ZN7Pokitto7Display10directCharEsst+0x210>)
    1310:	005b      	lsls	r3, r3, #1
    1312:	5a1b      	ldrh	r3, [r3, r0]
    1314:	4293      	cmp	r3, r2
    1316:	d100      	bne.n	131a <_ZN7Pokitto7Display10directCharEsst+0x1d2>
    1318:	e784      	b.n	1224 <_ZN7Pokitto7Display10directCharEsst+0xdc>
    131a:	4660      	mov	r0, ip
/home/manga/Projects/Pokitto/zboy-0.60/PokittoLib/POKITTO_CORE/PokittoDisplay.cpp:653
        if (col) {
    131c:	f002 f8ac 	bl	3478 <_ZN7Pokitto8lcdPixelEsst>
    1320:	465b      	mov	r3, fp
    1322:	781d      	ldrb	r5, [r3, #0]
/home/manga/Projects/Pokitto/zboy-0.60/PokittoLib/POKITTO_CORE/PokittoDisplay.cpp:656
        uint16_t i = y*(width>>2) + (x>>2);
    1324:	e77e      	b.n	1224 <_ZN7Pokitto7Display10directCharEsst+0xdc>
    1326:	0029      	movs	r1, r5
_ZN7Pokitto7Display10directCharEsst():
/home/manga/Projects/Pokitto/zboy-0.60/PokittoLib/POKITTO_CORE/PokittoDisplay.cpp:656
    1328:	2000      	movs	r0, #0
    132a:	4b0d      	ldr	r3, [pc, #52]	; (1360 <_ZN7Pokitto7Display10directCharEsst+0x218>)
/home/manga/Projects/Pokitto/zboy-0.60/PokittoLib/POKITTO_CORE/PokittoDisplay.cpp:660
        else if (column==2) pixel = (pixel&0xF3)|(col<<2); // bits 2-3
    132c:	5618      	ldrsb	r0, [r3, r0]
/home/manga/Projects/Pokitto/zboy-0.60/PokittoLib/POKITTO_CORE/PokittoDisplay.cpp:656
        uint16_t i = y*(width>>2) + (x>>2);
    132e:	9b0b      	ldr	r3, [sp, #44]	; 0x2c
    1330:	469c      	mov	ip, r3
/home/manga/Projects/Pokitto/zboy-0.60/PokittoLib/POKITTO_CORE/PokittoDisplay.cpp:657
        uint8_t pixel = m_scrbuf[i];
    1332:	4460      	add	r0, ip
    1334:	4348      	muls	r0, r1
    1336:	b00d      	add	sp, #52	; 0x34
    1338:	bc3c      	pop	{r2, r3, r4, r5}
/home/manga/Projects/Pokitto/zboy-0.60/PokittoLib/POKITTO_CORE/PokittoDisplay.cpp:660
        else if (column==2) pixel = (pixel&0xF3)|(col<<2); // bits 2-3
    133a:	4690      	mov	r8, r2
    133c:	4699      	mov	r9, r3
    133e:	46a2      	mov	sl, r4
    1340:	46ab      	mov	fp, r5
    1342:	bdf0      	pop	{r4, r5, r6, r7, pc}
/home/manga/Projects/Pokitto/zboy-0.60/PokittoLib/POKITTO_CORE/PokittoDisplay.cpp:663
        m_scrbuf[i] = pixel;
    1344:	100018fc 	.word	0x100018fc
/home/manga/Projects/Pokitto/zboy-0.60/PokittoLib/POKITTO_CORE/PokittoDisplay.cpp:1504
                uint8_t col = (r_val&0x1) | ((g_val&0x1)<<1) | ((b_val&0x1)<<2);
    1348:	10000112 	.word	0x10000112
    134c:	1000010a 	.word	0x1000010a
    1350:	10000106 	.word	0x10000106
    1354:	100018f4 	.word	0x100018f4
    1358:	10001908 	.word	0x10001908
/home/manga/Projects/Pokitto/zboy-0.60/PokittoLib/POKITTO_CORE/PokittoDisplay.cpp:623
    if (col==invisiblecolor) return; // do not draw transparent pixels
    135c:	100018ec 	.word	0x100018ec
/home/manga/Projects/Pokitto/zboy-0.60/PokittoLib/POKITTO_CORE/PokittoDisplay.cpp:1504
                uint8_t col = (r_val&0x1) | ((g_val&0x1)<<1) | ((b_val&0x1)<<2);
    1360:	10000108 	.word	0x10000108

00001364 <_ZN7Pokitto7Display10bufferCharEsst>:
_ZN7Pokitto7Display10bufferCharEsst():
/home/manga/Projects/Pokitto/zboy-0.60/PokittoLib/POKITTO_CORE/PokittoDisplay.cpp:1505
                r_val >>= 1; g_val >>= 1; b_val >>= 1;
    1364:	b5f0      	push	{r4, r5, r6, r7, lr}
    1366:	46de      	mov	lr, fp
/home/manga/Projects/Pokitto/zboy-0.60/PokittoLib/POKITTO_CORE/PokittoDisplay.cpp:623
    if (col==invisiblecolor) return; // do not draw transparent pixels
    1368:	4657      	mov	r7, sl
    136a:	4645      	mov	r5, r8
/home/manga/Projects/Pokitto/zboy-0.60/PokittoLib/POKITTO_CORE/PokittoDisplay.cpp:624
    if ((uint16_t)x >= width || (uint16_t)y >= height) return;
    136c:	464e      	mov	r6, r9
    136e:	b5e0      	push	{r5, r6, r7, lr}
    1370:	4bcd      	ldr	r3, [pc, #820]	; (16a8 <_ZN7Pokitto7Display10bufferCharEsst+0x344>)
    1372:	25f7      	movs	r5, #247	; 0xf7
    1374:	681b      	ldr	r3, [r3, #0]
    1376:	b091      	sub	sp, #68	; 0x44
    1378:	785c      	ldrb	r4, [r3, #1]
    137a:	46a3      	mov	fp, r4
    137c:	3c08      	subs	r4, #8
    137e:	402c      	ands	r4, r5
    1380:	1e65      	subs	r5, r4, #1
    1382:	41ac      	sbcs	r4, r5
    1384:	465d      	mov	r5, fp
/home/manga/Projects/Pokitto/zboy-0.60/PokittoLib/POKITTO_CORE/PokittoDisplay.cpp:653
        if (col) {
    1386:	10ed      	asrs	r5, r5, #3
    1388:	1964      	adds	r4, r4, r5
/home/manga/Projects/Pokitto/zboy-0.60/PokittoLib/POKITTO_CORE/PokittoDisplay.cpp:654
                col &= 3;
    138a:	0025      	movs	r5, r4
    138c:	940c      	str	r4, [sp, #48]	; 0x30
/home/manga/Projects/Pokitto/zboy-0.60/PokittoLib/POKITTO_CORE/PokittoDisplay.cpp:656
        uint16_t i = y*(width>>2) + (x>>2);
    138e:	781c      	ldrb	r4, [r3, #0]
    1390:	436c      	muls	r4, r5
    1392:	3401      	adds	r4, #1
/home/manga/Projects/Pokitto/zboy-0.60/PokittoLib/POKITTO_CORE/PokittoDisplay.cpp:660
        else if (column==2) pixel = (pixel&0xF3)|(col<<2); // bits 2-3
    1394:	4362      	muls	r2, r4
/home/manga/Projects/Pokitto/zboy-0.60/PokittoLib/POKITTO_CORE/PokittoDisplay.cpp:656
        uint16_t i = y*(width>>2) + (x>>2);
    1396:	3204      	adds	r2, #4
/home/manga/Projects/Pokitto/zboy-0.60/PokittoLib/POKITTO_CORE/PokittoDisplay.cpp:657
        uint8_t pixel = m_scrbuf[i];
    1398:	189b      	adds	r3, r3, r2
/home/manga/Projects/Pokitto/zboy-0.60/PokittoLib/POKITTO_CORE/PokittoDisplay.cpp:656
        uint16_t i = y*(width>>2) + (x>>2);
    139a:	1c5a      	adds	r2, r3, #1
/home/manga/Projects/Pokitto/zboy-0.60/PokittoLib/POKITTO_CORE/PokittoDisplay.cpp:657
        uint8_t pixel = m_scrbuf[i];
    139c:	781b      	ldrb	r3, [r3, #0]
    139e:	4cc3      	ldr	r4, [pc, #780]	; (16ac <_ZN7Pokitto7Display10bufferCharEsst+0x348>)
    13a0:	9203      	str	r2, [sp, #12]
/home/manga/Projects/Pokitto/zboy-0.60/PokittoLib/POKITTO_CORE/PokittoDisplay.cpp:660
        else if (column==2) pixel = (pixel&0xF3)|(col<<2); // bits 2-3
    13a2:	b25a      	sxtb	r2, r3
    13a4:	920e      	str	r2, [sp, #56]	; 0x38
    13a6:	7827      	ldrb	r7, [r4, #0]
    13a8:	2a00      	cmp	r2, #0
/home/manga/Projects/Pokitto/zboy-0.60/PokittoLib/POKITTO_CORE/PokittoDisplay.cpp:663
        m_scrbuf[i] = pixel;
    13aa:	dc00      	bgt.n	13ae <_ZN7Pokitto7Display10bufferCharEsst+0x4a>
/home/manga/Projects/Pokitto/zboy-0.60/PokittoLib/POKITTO_CORE/PokittoDisplay.cpp:1504
                uint8_t col = (r_val&0x1) | ((g_val&0x1)<<1) | ((b_val&0x1)<<2);
    13ac:	e14f      	b.n	164e <_ZN7Pokitto7Display10bufferCharEsst+0x2ea>
    13ae:	b282      	uxth	r2, r0
    13b0:	4694      	mov	ip, r2
    13b2:	b28a      	uxth	r2, r1
/home/manga/Projects/Pokitto/zboy-0.60/PokittoLib/POKITTO_CORE/PokittoDisplay.cpp:623
    if (col==invisiblecolor) return; // do not draw transparent pixels
    13b4:	4690      	mov	r8, r2
    13b6:	4662      	mov	r2, ip
    13b8:	3201      	adds	r2, #1
    13ba:	9207      	str	r2, [sp, #28]
    13bc:	b292      	uxth	r2, r2
    13be:	9201      	str	r2, [sp, #4]
/home/manga/Projects/Pokitto/zboy-0.60/PokittoLib/POKITTO_CORE/PokittoDisplay.cpp:624
    if ((uint16_t)x >= width || (uint16_t)y >= height) return;
    13c0:	4662      	mov	r2, ip
    13c2:	3b01      	subs	r3, #1
    13c4:	b2db      	uxtb	r3, r3
    13c6:	3202      	adds	r2, #2
    13c8:	005b      	lsls	r3, r3, #1
    13ca:	189b      	adds	r3, r3, r2
    13cc:	b29b      	uxth	r3, r3
    13ce:	930d      	str	r3, [sp, #52]	; 0x34
    13d0:	4bb7      	ldr	r3, [pc, #732]	; (16b0 <_ZN7Pokitto7Display10bufferCharEsst+0x34c>)
    13d2:	9a0c      	ldr	r2, [sp, #48]	; 0x30
    13d4:	469a      	mov	sl, r3
    13d6:	9b03      	ldr	r3, [sp, #12]
_ZN7Pokitto7Display9drawPixelEssh():
/home/manga/Projects/Pokitto/zboy-0.60/PokittoLib/POKITTO_CORE/PokittoDisplay.cpp:624
    13d8:	003d      	movs	r5, r7
    13da:	4666      	mov	r6, ip
_ZN7Pokitto7Display10bufferCharEsst():
/home/manga/Projects/Pokitto/zboy-0.60/PokittoLib/POKITTO_CORE/PokittoDisplay.cpp:624
    13dc:	7818      	ldrb	r0, [r3, #0]
    13de:	2a02      	cmp	r2, #2
    13e0:	d076      	beq.n	14d0 <_ZN7Pokitto7Display10bufferCharEsst+0x16c>
/home/manga/Projects/Pokitto/zboy-0.60/PokittoLib/POKITTO_CORE/PokittoDisplay.cpp:653
        if (col) {
    13e2:	3301      	adds	r3, #1
    13e4:	9303      	str	r3, [sp, #12]
    13e6:	b280      	uxth	r0, r0
_ZN7Pokitto7Display9drawPixelEssh():
/home/manga/Projects/Pokitto/zboy-0.60/PokittoLib/POKITTO_CORE/PokittoDisplay.cpp:654
                col &= 3;
    13e8:	4663      	mov	r3, ip
    13ea:	b21b      	sxth	r3, r3
/home/manga/Projects/Pokitto/zboy-0.60/PokittoLib/POKITTO_CORE/PokittoDisplay.cpp:656
        uint16_t i = y*(width>>2) + (x>>2);
    13ec:	109b      	asrs	r3, r3, #2
    13ee:	b29b      	uxth	r3, r3
    13f0:	930b      	str	r3, [sp, #44]	; 0x2c
/home/manga/Projects/Pokitto/zboy-0.60/PokittoLib/POKITTO_CORE/PokittoDisplay.cpp:660
        else if (column==2) pixel = (pixel&0xF3)|(col<<2); // bits 2-3
    13f2:	4662      	mov	r2, ip
/home/manga/Projects/Pokitto/zboy-0.60/PokittoLib/POKITTO_CORE/PokittoDisplay.cpp:656
        uint16_t i = y*(width>>2) + (x>>2);
    13f4:	2303      	movs	r3, #3
/home/manga/Projects/Pokitto/zboy-0.60/PokittoLib/POKITTO_CORE/PokittoDisplay.cpp:657
        uint8_t pixel = m_scrbuf[i];
    13f6:	401a      	ands	r2, r3
/home/manga/Projects/Pokitto/zboy-0.60/PokittoLib/POKITTO_CORE/PokittoDisplay.cpp:656
        uint16_t i = y*(width>>2) + (x>>2);
    13f8:	9206      	str	r2, [sp, #24]
/home/manga/Projects/Pokitto/zboy-0.60/PokittoLib/POKITTO_CORE/PokittoDisplay.cpp:657
        uint8_t pixel = m_scrbuf[i];
    13fa:	b232      	sxth	r2, r6
    13fc:	1092      	asrs	r2, r2, #2
    13fe:	b292      	uxth	r2, r2
/home/manga/Projects/Pokitto/zboy-0.60/PokittoLib/POKITTO_CORE/PokittoDisplay.cpp:660
        else if (column==2) pixel = (pixel&0xF3)|(col<<2); // bits 2-3
    1400:	9209      	str	r2, [sp, #36]	; 0x24
    1402:	001a      	movs	r2, r3
    1404:	9c01      	ldr	r4, [sp, #4]
    1406:	4032      	ands	r2, r6
/home/manga/Projects/Pokitto/zboy-0.60/PokittoLib/POKITTO_CORE/PokittoDisplay.cpp:663
        m_scrbuf[i] = pixel;
    1408:	9204      	str	r2, [sp, #16]
    140a:	b222      	sxth	r2, r4
    140c:	1092      	asrs	r2, r2, #2
    140e:	b291      	uxth	r1, r2
    1410:	0022      	movs	r2, r4
    1412:	401a      	ands	r2, r3
    1414:	465b      	mov	r3, fp
    1416:	9205      	str	r2, [sp, #20]
    1418:	4647      	mov	r7, r8
_ZN7Pokitto7Display10bufferCharEsst():
/home/manga/Projects/Pokitto/zboy-0.60/PokittoLib/POKITTO_CORE/PokittoDisplay.cpp:663
    141a:	2200      	movs	r2, #0
_ZN7Pokitto7Display9drawPixelEssh():
/home/manga/Projects/Pokitto/zboy-0.60/PokittoLib/POKITTO_CORE/PokittoDisplay.cpp:663
    141c:	46e3      	mov	fp, ip
    141e:	46b0      	mov	r8, r6
    1420:	910a      	str	r1, [sp, #40]	; 0x28
    1422:	9300      	str	r3, [sp, #0]
    1424:	2601      	movs	r6, #1
/home/manga/Projects/Pokitto/zboy-0.60/PokittoLib/POKITTO_CORE/PokittoDisplay.cpp:746
        else if (column==1) pixel = (pixel&0xCF)|(color<<4); // bits 4-5
    1426:	4651      	mov	r1, sl
    1428:	4006      	ands	r6, r0
    142a:	b293      	uxth	r3, r2
    142c:	8809      	ldrh	r1, [r1, #0]
_ZN7Pokitto7Display10bufferCharEsst():
/home/manga/Projects/Pokitto/zboy-0.60/PokittoLib/POKITTO_CORE/PokittoDisplay.cpp:746
    142e:	2d02      	cmp	r5, #2
/home/manga/Projects/Pokitto/zboy-0.60/PokittoLib/POKITTO_CORE/PokittoDisplay.cpp:1463
                    output >>= (6-bitNum);
    1430:	d055      	beq.n	14de <_ZN7Pokitto7Display10bufferCharEsst+0x17a>
/home/manga/Projects/Pokitto/zboy-0.60/PokittoLib/POKITTO_CORE/PokittoDisplay.cpp:1462
                    uint8_t output = (source & (0xC0 >> bitNum));
    1432:	18fb      	adds	r3, r7, r3
/home/manga/Projects/Pokitto/zboy-0.60/PokittoLib/POKITTO_CORE/PokittoDisplay.cpp:1463
                    output >>= (6-bitNum);
    1434:	b29b      	uxth	r3, r3
    1436:	2e00      	cmp	r6, #0
/home/manga/Projects/Pokitto/zboy-0.60/PokittoLib/POKITTO_CORE/PokittoDisplay.cpp:1464
                    if (output != invisiblecolor) {
    1438:	d100      	bne.n	143c <_ZN7Pokitto7Display10bufferCharEsst+0xd8>
    143a:	e086      	b.n	154a <_ZN7Pokitto7Display10bufferCharEsst+0x1e6>
    143c:	4e9d      	ldr	r6, [pc, #628]	; (16b4 <_ZN7Pokitto7Display10bufferCharEsst+0x350>)
    143e:	7836      	ldrb	r6, [r6, #0]
_ZN7Pokitto7Display9drawPixelEssh():
/home/manga/Projects/Pokitto/zboy-0.60/PokittoLib/POKITTO_CORE/PokittoDisplay.cpp:1464
    1440:	428e      	cmp	r6, r1
    1442:	d027      	beq.n	1494 <_ZN7Pokitto7Display10bufferCharEsst+0x130>
/home/manga/Projects/Pokitto/zboy-0.60/PokittoLib/POKITTO_CORE/PokittoDisplay.cpp:593
    color = c & ((1<<POK_COLORDEPTH)-1); // cut out colors that go above palette limit
    1444:	499c      	ldr	r1, [pc, #624]	; (16b8 <_ZN7Pokitto7Display10bufferCharEsst+0x354>)
/home/manga/Projects/Pokitto/zboy-0.60/PokittoLib/POKITTO_CORE/PokittoDisplay.cpp:690
    if ((uint16_t)x >= width || (uint16_t)y >= height) return;
    1446:	7809      	ldrb	r1, [r1, #0]
/home/manga/Projects/Pokitto/zboy-0.60/PokittoLib/POKITTO_CORE/PokittoDisplay.cpp:593
    color = c & ((1<<POK_COLORDEPTH)-1); // cut out colors that go above palette limit
    1448:	4559      	cmp	r1, fp
/home/manga/Projects/Pokitto/zboy-0.60/PokittoLib/POKITTO_CORE/PokittoDisplay.cpp:690
    if ((uint16_t)x >= width || (uint16_t)y >= height) return;
    144a:	d923      	bls.n	1494 <_ZN7Pokitto7Display10bufferCharEsst+0x130>
    144c:	4c9b      	ldr	r4, [pc, #620]	; (16bc <_ZN7Pokitto7Display10bufferCharEsst+0x358>)
    144e:	7824      	ldrb	r4, [r4, #0]
    1450:	429c      	cmp	r4, r3
    1452:	d91f      	bls.n	1494 <_ZN7Pokitto7Display10bufferCharEsst+0x130>
    1454:	1089      	asrs	r1, r1, #2
    1456:	434b      	muls	r3, r1
    1458:	990b      	ldr	r1, [sp, #44]	; 0x2c
    145a:	2503      	movs	r5, #3
    145c:	468c      	mov	ip, r1
    145e:	4998      	ldr	r1, [pc, #608]	; (16c0 <_ZN7Pokitto7Display10bufferCharEsst+0x35c>)
    1460:	4463      	add	r3, ip
/home/manga/Projects/Pokitto/zboy-0.60/PokittoLib/POKITTO_CORE/PokittoDisplay.cpp:741
        uint16_t i = y*(width>>2) + (x>>2);
    1462:	6809      	ldr	r1, [r1, #0]
    1464:	b29b      	uxth	r3, r3
    1466:	468c      	mov	ip, r1
    1468:	9c06      	ldr	r4, [sp, #24]
/home/manga/Projects/Pokitto/zboy-0.60/PokittoLib/POKITTO_CORE/PokittoDisplay.cpp:746
        else if (column==1) pixel = (pixel&0xCF)|(color<<4); // bits 4-5
    146a:	9102      	str	r1, [sp, #8]
/home/manga/Projects/Pokitto/zboy-0.60/PokittoLib/POKITTO_CORE/PokittoDisplay.cpp:741
        uint16_t i = y*(width>>2) + (x>>2);
    146c:	4463      	add	r3, ip
/home/manga/Projects/Pokitto/zboy-0.60/PokittoLib/POKITTO_CORE/PokittoDisplay.cpp:742
        uint8_t pixel = m_scrbuf[i];
    146e:	4035      	ands	r5, r6
/home/manga/Projects/Pokitto/zboy-0.60/PokittoLib/POKITTO_CORE/PokittoDisplay.cpp:741
        uint16_t i = y*(width>>2) + (x>>2);
    1470:	7819      	ldrb	r1, [r3, #0]
/home/manga/Projects/Pokitto/zboy-0.60/PokittoLib/POKITTO_CORE/PokittoDisplay.cpp:742
        uint8_t pixel = m_scrbuf[i];
    1472:	2c03      	cmp	r4, #3
    1474:	d100      	bne.n	1478 <_ZN7Pokitto7Display10bufferCharEsst+0x114>
    1476:	e0e6      	b.n	1646 <_ZN7Pokitto7Display10bufferCharEsst+0x2e2>
    1478:	b249      	sxtb	r1, r1
/home/manga/Projects/Pokitto/zboy-0.60/PokittoLib/POKITTO_CORE/PokittoDisplay.cpp:746
        else if (column==1) pixel = (pixel&0xCF)|(color<<4); // bits 4-5
    147a:	2c02      	cmp	r4, #2
/home/manga/Projects/Pokitto/zboy-0.60/PokittoLib/POKITTO_CORE/PokittoDisplay.cpp:742
        uint8_t pixel = m_scrbuf[i];
    147c:	d100      	bne.n	1480 <_ZN7Pokitto7Display10bufferCharEsst+0x11c>
/home/manga/Projects/Pokitto/zboy-0.60/PokittoLib/POKITTO_CORE/PokittoDisplay.cpp:746
        else if (column==1) pixel = (pixel&0xCF)|(color<<4); // bits 4-5
    147e:	e0f6      	b.n	166e <_ZN7Pokitto7Display10bufferCharEsst+0x30a>
    1480:	2c01      	cmp	r4, #1
    1482:	d100      	bne.n	1486 <_ZN7Pokitto7Display10bufferCharEsst+0x122>
/home/manga/Projects/Pokitto/zboy-0.60/PokittoLib/POKITTO_CORE/PokittoDisplay.cpp:748
        m_scrbuf[i] = pixel;
    1484:	e165      	b.n	1752 <_ZN7Pokitto7Display10bufferCharEsst+0x3ee>
/home/manga/Projects/Pokitto/zboy-0.60/PokittoLib/POKITTO_CORE/PokittoDisplay.cpp:746
        else if (column==1) pixel = (pixel&0xCF)|(color<<4); // bits 4-5
    1486:	263f      	movs	r6, #63	; 0x3f
/home/manga/Projects/Pokitto/zboy-0.60/PokittoLib/POKITTO_CORE/PokittoDisplay.cpp:748
        m_scrbuf[i] = pixel;
    1488:	400e      	ands	r6, r1
    148a:	01a9      	lsls	r1, r5, #6
    148c:	4331      	orrs	r1, r6
    148e:	7019      	strb	r1, [r3, #0]
/home/manga/Projects/Pokitto/zboy-0.60/PokittoLib/POKITTO_CORE/PokittoDisplay.cpp:1460
                for (j = bmupdateY; j < bmupdateY2; j++) {
    1490:	4b86      	ldr	r3, [pc, #536]	; (16ac <_ZN7Pokitto7Display10bufferCharEsst+0x348>)
    1492:	781d      	ldrb	r5, [r3, #0]
    1494:	3201      	adds	r2, #1
_ZN7Pokitto7Display10bufferCharEsst():
/home/manga/Projects/Pokitto/zboy-0.60/PokittoLib/POKITTO_CORE/PokittoDisplay.cpp:1460
    1496:	9b00      	ldr	r3, [sp, #0]
    1498:	b252      	sxtb	r2, r2
    149a:	0840      	lsrs	r0, r0, #1
    149c:	4293      	cmp	r3, r2
    149e:	dac1      	bge.n	1424 <_ZN7Pokitto7Display10bufferCharEsst+0xc0>
    14a0:	469b      	mov	fp, r3
    14a2:	466b      	mov	r3, sp
    14a4:	4646      	mov	r6, r8
    14a6:	8b9b      	ldrh	r3, [r3, #28]
    14a8:	3602      	adds	r6, #2
/home/manga/Projects/Pokitto/zboy-0.60/PokittoLib/POKITTO_CORE/PokittoDisplay.cpp:745
        else if (column==2) pixel = (pixel&0xF3)|(color<<2); // bits 2-3
    14aa:	469c      	mov	ip, r3
    14ac:	9b01      	ldr	r3, [sp, #4]
    14ae:	b2b6      	uxth	r6, r6
    14b0:	3302      	adds	r3, #2
    14b2:	b29b      	uxth	r3, r3
/home/manga/Projects/Pokitto/zboy-0.60/PokittoLib/POKITTO_CORE/PokittoDisplay.cpp:1463
                    output >>= (6-bitNum);
    14b4:	9301      	str	r3, [sp, #4]
/home/manga/Projects/Pokitto/zboy-0.60/PokittoLib/POKITTO_CORE/PokittoDisplay.cpp:1462
                    uint8_t output = (source & (0xC0 >> bitNum));
    14b6:	9b0d      	ldr	r3, [sp, #52]	; 0x34
/home/manga/Projects/Pokitto/zboy-0.60/PokittoLib/POKITTO_CORE/PokittoDisplay.cpp:1463
                    output >>= (6-bitNum);
    14b8:	46b8      	mov	r8, r7
    14ba:	42b3      	cmp	r3, r6
/home/manga/Projects/Pokitto/zboy-0.60/PokittoLib/POKITTO_CORE/PokittoDisplay.cpp:1464
                    if (output != invisiblecolor) {
    14bc:	d100      	bne.n	14c0 <_ZN7Pokitto7Display10bufferCharEsst+0x15c>
    14be:	e0c5      	b.n	164c <_ZN7Pokitto7Display10bufferCharEsst+0x2e8>
    14c0:	4663      	mov	r3, ip
    14c2:	3301      	adds	r3, #1
    14c4:	9307      	str	r3, [sp, #28]
    14c6:	9a0c      	ldr	r2, [sp, #48]	; 0x30
/home/manga/Projects/Pokitto/zboy-0.60/PokittoLib/POKITTO_CORE/PokittoDisplay.cpp:593
    color = c & ((1<<POK_COLORDEPTH)-1); // cut out colors that go above palette limit
    14c8:	9b03      	ldr	r3, [sp, #12]
/home/manga/Projects/Pokitto/zboy-0.60/PokittoLib/POKITTO_CORE/PokittoDisplay.cpp:690
    if ((uint16_t)x >= width || (uint16_t)y >= height) return;
    14ca:	7818      	ldrb	r0, [r3, #0]
/home/manga/Projects/Pokitto/zboy-0.60/PokittoLib/POKITTO_CORE/PokittoDisplay.cpp:593
    color = c & ((1<<POK_COLORDEPTH)-1); // cut out colors that go above palette limit
    14cc:	2a02      	cmp	r2, #2
/home/manga/Projects/Pokitto/zboy-0.60/PokittoLib/POKITTO_CORE/PokittoDisplay.cpp:690
    if ((uint16_t)x >= width || (uint16_t)y >= height) return;
    14ce:	d188      	bne.n	13e2 <_ZN7Pokitto7Display10bufferCharEsst+0x7e>
    14d0:	001a      	movs	r2, r3
    14d2:	785b      	ldrb	r3, [r3, #1]
    14d4:	021b      	lsls	r3, r3, #8
    14d6:	4318      	orrs	r0, r3
    14d8:	1c93      	adds	r3, r2, #2
    14da:	9303      	str	r3, [sp, #12]
    14dc:	e784      	b.n	13e8 <_ZN7Pokitto7Display10bufferCharEsst+0x84>
    14de:	005b      	lsls	r3, r3, #1
    14e0:	18fb      	adds	r3, r7, r3
    14e2:	b29b      	uxth	r3, r3
    14e4:	1c5d      	adds	r5, r3, #1
/home/manga/Projects/Pokitto/zboy-0.60/PokittoLib/POKITTO_CORE/PokittoDisplay.cpp:741
        uint16_t i = y*(width>>2) + (x>>2);
    14e6:	b2ad      	uxth	r5, r5
    14e8:	9502      	str	r5, [sp, #8]
    14ea:	2e00      	cmp	r6, #0
    14ec:	d032      	beq.n	1554 <_ZN7Pokitto7Display10bufferCharEsst+0x1f0>
/home/manga/Projects/Pokitto/zboy-0.60/PokittoLib/POKITTO_CORE/PokittoDisplay.cpp:745
        else if (column==2) pixel = (pixel&0xF3)|(color<<2); // bits 2-3
    14ee:	4d71      	ldr	r5, [pc, #452]	; (16b4 <_ZN7Pokitto7Display10bufferCharEsst+0x350>)
/home/manga/Projects/Pokitto/zboy-0.60/PokittoLib/POKITTO_CORE/PokittoDisplay.cpp:741
        uint16_t i = y*(width>>2) + (x>>2);
    14f0:	46ac      	mov	ip, r5
/home/manga/Projects/Pokitto/zboy-0.60/PokittoLib/POKITTO_CORE/PokittoDisplay.cpp:742
        uint8_t pixel = m_scrbuf[i];
    14f2:	782d      	ldrb	r5, [r5, #0]
_ZN7Pokitto7Display9drawPixelEssh():
/home/manga/Projects/Pokitto/zboy-0.60/PokittoLib/POKITTO_CORE/PokittoDisplay.cpp:741
        uint16_t i = y*(width>>2) + (x>>2);
    14f4:	428d      	cmp	r5, r1
/home/manga/Projects/Pokitto/zboy-0.60/PokittoLib/POKITTO_CORE/PokittoDisplay.cpp:742
        uint8_t pixel = m_scrbuf[i];
    14f6:	d0cb      	beq.n	1490 <_ZN7Pokitto7Display10bufferCharEsst+0x12c>
    14f8:	496f      	ldr	r1, [pc, #444]	; (16b8 <_ZN7Pokitto7Display10bufferCharEsst+0x354>)
    14fa:	9108      	str	r1, [sp, #32]
    14fc:	7809      	ldrb	r1, [r1, #0]
/home/manga/Projects/Pokitto/zboy-0.60/PokittoLib/POKITTO_CORE/PokittoDisplay.cpp:745
        else if (column==2) pixel = (pixel&0xF3)|(color<<2); // bits 2-3
    14fe:	b28c      	uxth	r4, r1
/home/manga/Projects/Pokitto/zboy-0.60/PokittoLib/POKITTO_CORE/PokittoDisplay.cpp:742
        uint8_t pixel = m_scrbuf[i];
    1500:	46a1      	mov	r9, r4
/home/manga/Projects/Pokitto/zboy-0.60/PokittoLib/POKITTO_CORE/PokittoDisplay.cpp:745
        else if (column==2) pixel = (pixel&0xF3)|(color<<2); // bits 2-3
    1502:	4544      	cmp	r4, r8
    1504:	d932      	bls.n	156c <_ZN7Pokitto7Display10bufferCharEsst+0x208>
    1506:	4e6d      	ldr	r6, [pc, #436]	; (16bc <_ZN7Pokitto7Display10bufferCharEsst+0x358>)
/home/manga/Projects/Pokitto/zboy-0.60/PokittoLib/POKITTO_CORE/PokittoDisplay.cpp:748
        m_scrbuf[i] = pixel;
    1508:	7836      	ldrb	r6, [r6, #0]
/home/manga/Projects/Pokitto/zboy-0.60/PokittoLib/POKITTO_CORE/PokittoDisplay.cpp:745
        else if (column==2) pixel = (pixel&0xF3)|(color<<2); // bits 2-3
    150a:	429e      	cmp	r6, r3
/home/manga/Projects/Pokitto/zboy-0.60/PokittoLib/POKITTO_CORE/PokittoDisplay.cpp:748
        m_scrbuf[i] = pixel;
    150c:	d92e      	bls.n	156c <_ZN7Pokitto7Display10bufferCharEsst+0x208>
    150e:	9c09      	ldr	r4, [sp, #36]	; 0x24
    1510:	2603      	movs	r6, #3
    1512:	46a1      	mov	r9, r4
/home/manga/Projects/Pokitto/zboy-0.60/PokittoLib/POKITTO_CORE/PokittoDisplay.cpp:1460
                for (j = bmupdateY; j < bmupdateY2; j++) {
    1514:	1089      	asrs	r1, r1, #2
    1516:	4359      	muls	r1, r3
    1518:	402e      	ands	r6, r5
    151a:	4d69      	ldr	r5, [pc, #420]	; (16c0 <_ZN7Pokitto7Display10bufferCharEsst+0x35c>)
/home/manga/Projects/Pokitto/zboy-0.60/PokittoLib/POKITTO_CORE/PokittoDisplay.cpp:1522

    /** 4bpp fast version */
	int16_t scrx,scry,xclip,xjump,scrxjump;
    xclip=xjump=scrxjump=0;
    /** y clipping */
    if (y<0) { h+=y; bitmap -= y*(w>>1); y=0;}
    151c:	960f      	str	r6, [sp, #60]	; 0x3c
    151e:	4449      	add	r1, r9
    1520:	682e      	ldr	r6, [r5, #0]
/home/manga/Projects/Pokitto/zboy-0.60/PokittoLib/POKITTO_CORE/PokittoDisplay.cpp:1523
    else if (y+h>height) { h -=(y-height);}
    1522:	b289      	uxth	r1, r1
    1524:	9c04      	ldr	r4, [sp, #16]
    1526:	1876      	adds	r6, r6, r1
    1528:	7831      	ldrb	r1, [r6, #0]
    152a:	2c03      	cmp	r4, #3
    152c:	d100      	bne.n	1530 <_ZN7Pokitto7Display10bufferCharEsst+0x1cc>
    152e:	e0a4      	b.n	167a <_ZN7Pokitto7Display10bufferCharEsst+0x316>
/home/manga/Projects/Pokitto/zboy-0.60/PokittoLib/POKITTO_CORE/PokittoDisplay.cpp:1523 (discriminator 1)
    1530:	b249      	sxtb	r1, r1
    1532:	2c02      	cmp	r4, #2
    1534:	d100      	bne.n	1538 <_ZN7Pokitto7Display10bufferCharEsst+0x1d4>
    1536:	e125      	b.n	1784 <_ZN7Pokitto7Display10bufferCharEsst+0x420>
    1538:	2c01      	cmp	r4, #1
    153a:	d100      	bne.n	153e <_ZN7Pokitto7Display10bufferCharEsst+0x1da>
/home/manga/Projects/Pokitto/zboy-0.60/PokittoLib/POKITTO_CORE/PokittoDisplay.cpp:1525
    /** x clipping */
    if (x<0) { xclip=(x&1)<<1; w+=x; xjump = ((-x)>>1); bitmap += xjump; x=0;}
    153c:	e102      	b.n	1744 <_ZN7Pokitto7Display10bufferCharEsst+0x3e0>
    153e:	253f      	movs	r5, #63	; 0x3f
    1540:	9c0f      	ldr	r4, [sp, #60]	; 0x3c
    1542:	4029      	ands	r1, r5
/home/manga/Projects/Pokitto/zboy-0.60/PokittoLib/POKITTO_CORE/PokittoDisplay.cpp:1526
    else if (x+w>width) {
    1544:	01a5      	lsls	r5, r4, #6
    1546:	4329      	orrs	r1, r5
    1548:	e09b      	b.n	1682 <_ZN7Pokitto7Display10bufferCharEsst+0x31e>
_ZN7Pokitto7Display10bufferCharEsst():
/home/manga/Projects/Pokitto/zboy-0.60/PokittoLib/POKITTO_CORE/PokittoDisplay.cpp:1526
    154a:	4e5e      	ldr	r6, [pc, #376]	; (16c4 <_ZN7Pokitto7Display10bufferCharEsst+0x360>)
    154c:	7836      	ldrb	r6, [r6, #0]
_ZN7Pokitto7Display9drawPixelEssh():
/home/manga/Projects/Pokitto/zboy-0.60/PokittoLib/POKITTO_CORE/PokittoDisplay.cpp:1527
            xclip = (x&1)<<1;
    154e:	428e      	cmp	r6, r1
    1550:	d0a0      	beq.n	1494 <_ZN7Pokitto7Display10bufferCharEsst+0x130>
    1552:	e777      	b.n	1444 <_ZN7Pokitto7Display10bufferCharEsst+0xe0>
_ZN7Pokitto7Display10bufferCharEsst():
/home/manga/Projects/Pokitto/zboy-0.60/PokittoLib/POKITTO_CORE/PokittoDisplay.cpp:1528
            scrxjump = x&1;
    1554:	4d5b      	ldr	r5, [pc, #364]	; (16c4 <_ZN7Pokitto7Display10bufferCharEsst+0x360>)
    1556:	46ac      	mov	ip, r5
/home/manga/Projects/Pokitto/zboy-0.60/PokittoLib/POKITTO_CORE/PokittoDisplay.cpp:1527
            xclip = (x&1)<<1;
    1558:	782d      	ldrb	r5, [r5, #0]
_ZN7Pokitto7Display9drawPixelEssh():
/home/manga/Projects/Pokitto/zboy-0.60/PokittoLib/POKITTO_CORE/PokittoDisplay.cpp:1528
            scrxjump = x&1;
    155a:	428d      	cmp	r5, r1
/home/manga/Projects/Pokitto/zboy-0.60/PokittoLib/POKITTO_CORE/PokittoDisplay.cpp:1529
            xjump=((x+w-width)>>1)+scrxjump;
    155c:	d098      	beq.n	1490 <_ZN7Pokitto7Display10bufferCharEsst+0x12c>
/home/manga/Projects/Pokitto/zboy-0.60/PokittoLib/POKITTO_CORE/PokittoDisplay.cpp:1528
            scrxjump = x&1;
    155e:	4956      	ldr	r1, [pc, #344]	; (16b8 <_ZN7Pokitto7Display10bufferCharEsst+0x354>)
/home/manga/Projects/Pokitto/zboy-0.60/PokittoLib/POKITTO_CORE/PokittoDisplay.cpp:1529
            xjump=((x+w-width)>>1)+scrxjump;
    1560:	9108      	str	r1, [sp, #32]
    1562:	7809      	ldrb	r1, [r1, #0]
    1564:	b28c      	uxth	r4, r1
    1566:	46a1      	mov	r9, r4
    1568:	4544      	cmp	r4, r8
/home/manga/Projects/Pokitto/zboy-0.60/PokittoLib/POKITTO_CORE/PokittoDisplay.cpp:1530
            w = width-x;}
    156a:	d8cc      	bhi.n	1506 <_ZN7Pokitto7Display10bufferCharEsst+0x1a2>
    156c:	9c01      	ldr	r4, [sp, #4]
/home/manga/Projects/Pokitto/zboy-0.60/PokittoLib/POKITTO_CORE/PokittoDisplay.cpp:1532

    uint8_t* scrptr = m_scrbuf + (y*(width>>1) + (x>>1));
    156e:	45a1      	cmp	r9, r4
    1570:	d921      	bls.n	15b6 <_ZN7Pokitto7Display10bufferCharEsst+0x252>
    1572:	4e52      	ldr	r6, [pc, #328]	; (16bc <_ZN7Pokitto7Display10bufferCharEsst+0x358>)
/home/manga/Projects/Pokitto/zboy-0.60/PokittoLib/POKITTO_CORE/PokittoDisplay.cpp:1534
    /** ONLY 4-bit mode for time being **/
    for (scry = y; scry < y+h; scry+=1) {
    1574:	7834      	ldrb	r4, [r6, #0]
    1576:	429c      	cmp	r4, r3
    1578:	d943      	bls.n	1602 <_ZN7Pokitto7Display10bufferCharEsst+0x29e>
    157a:	1089      	asrs	r1, r1, #2
    157c:	4359      	muls	r1, r3
/home/manga/Projects/Pokitto/zboy-0.60/PokittoLib/POKITTO_CORE/PokittoDisplay.cpp:1535
            if (scry>=height) return;
    157e:	9b0a      	ldr	r3, [sp, #40]	; 0x28
    1580:	2403      	movs	r4, #3
    1582:	4699      	mov	r9, r3
    1584:	4449      	add	r1, r9
    1586:	b28b      	uxth	r3, r1
    1588:	494d      	ldr	r1, [pc, #308]	; (16c0 <_ZN7Pokitto7Display10bufferCharEsst+0x35c>)
    158a:	402c      	ands	r4, r5
    158c:	6809      	ldr	r1, [r1, #0]
    158e:	940f      	str	r4, [sp, #60]	; 0x3c
    1590:	9c05      	ldr	r4, [sp, #20]
    1592:	18c9      	adds	r1, r1, r3
    1594:	780b      	ldrb	r3, [r1, #0]
/home/manga/Projects/Pokitto/zboy-0.60/PokittoLib/POKITTO_CORE/PokittoDisplay.cpp:1567
                    bitmap++;
                    scrptr++;
                }
                bitmap += xjump; // needed if x<0 clipping occurs
            } else { /** ODD pixel starting line **/
                for (scrx = x; scrx < w+x-xclip; scrx+=2) {
    1596:	2c03      	cmp	r4, #3
    1598:	d100      	bne.n	159c <_ZN7Pokitto7Display10bufferCharEsst+0x238>
    159a:	e097      	b.n	16cc <_ZN7Pokitto7Display10bufferCharEsst+0x368>
    159c:	b25b      	sxtb	r3, r3
    159e:	2c02      	cmp	r4, #2
    15a0:	d100      	bne.n	15a4 <_ZN7Pokitto7Display10bufferCharEsst+0x240>
    15a2:	e0dc      	b.n	175e <_ZN7Pokitto7Display10bufferCharEsst+0x3fa>
/home/manga/Projects/Pokitto/zboy-0.60/PokittoLib/POKITTO_CORE/PokittoDisplay.cpp:1536
            if ((x&1)==0) { /** EVEN pixel starting line, very simple, just copypaste **/
    15a4:	2c01      	cmp	r4, #1
    15a6:	d100      	bne.n	15aa <_ZN7Pokitto7Display10bufferCharEsst+0x246>
    15a8:	e0b9      	b.n	171e <_ZN7Pokitto7Display10bufferCharEsst+0x3ba>
/home/manga/Projects/Pokitto/zboy-0.60/PokittoLib/POKITTO_CORE/PokittoDisplay.cpp:1537
                for (scrx = x; scrx < w+x-xclip; scrx+=2) {
    15aa:	253f      	movs	r5, #63	; 0x3f
    15ac:	9c0f      	ldr	r4, [sp, #60]	; 0x3c
    15ae:	402b      	ands	r3, r5
    15b0:	01a5      	lsls	r5, r4, #6
    15b2:	432b      	orrs	r3, r5
    15b4:	e08e      	b.n	16d4 <_ZN7Pokitto7Display10bufferCharEsst+0x370>
    15b6:	45c1      	cmp	r9, r8
    15b8:	d800      	bhi.n	15bc <_ZN7Pokitto7Display10bufferCharEsst+0x258>
    15ba:	e769      	b.n	1490 <_ZN7Pokitto7Display10bufferCharEsst+0x12c>
    15bc:	4e3f      	ldr	r6, [pc, #252]	; (16bc <_ZN7Pokitto7Display10bufferCharEsst+0x358>)
/home/manga/Projects/Pokitto/zboy-0.60/PokittoLib/POKITTO_CORE/PokittoDisplay.cpp:1545
                    if ((sourcepixel&0x0F) != invisiblecolor) targetpixel = (targetpixel & 0xF0) | (sourcepixel & 0x0F);
    15be:	7833      	ldrb	r3, [r6, #0]
    15c0:	9c02      	ldr	r4, [sp, #8]
/home/manga/Projects/Pokitto/zboy-0.60/PokittoLib/POKITTO_CORE/PokittoDisplay.cpp:1546
                    *scrptr = targetpixel;
    15c2:	4699      	mov	r9, r3
    15c4:	45a1      	cmp	r9, r4
    15c6:	d800      	bhi.n	15ca <_ZN7Pokitto7Display10bufferCharEsst+0x266>
/home/manga/Projects/Pokitto/zboy-0.60/PokittoLib/POKITTO_CORE/PokittoDisplay.cpp:1547
                    bitmap++;
    15c8:	e762      	b.n	1490 <_ZN7Pokitto7Display10bufferCharEsst+0x12c>
/home/manga/Projects/Pokitto/zboy-0.60/PokittoLib/POKITTO_CORE/PokittoDisplay.cpp:1548
                    scrptr++;
    15ca:	2303      	movs	r3, #3
/home/manga/Projects/Pokitto/zboy-0.60/PokittoLib/POKITTO_CORE/PokittoDisplay.cpp:1537
                for (scrx = x; scrx < w+x-xclip; scrx+=2) {
    15cc:	401d      	ands	r5, r3
    15ce:	9b09      	ldr	r3, [sp, #36]	; 0x24
/home/manga/Projects/Pokitto/zboy-0.60/PokittoLib/POKITTO_CORE/PokittoDisplay.cpp:1544
                    if ((sourcepixel>>4) != invisiblecolor ) targetpixel = (targetpixel&0x0F) | (sourcepixel & 0xF0);
    15d0:	1089      	asrs	r1, r1, #2
/home/manga/Projects/Pokitto/zboy-0.60/PokittoLib/POKITTO_CORE/PokittoDisplay.cpp:1538
                    uint8_t sourcepixel = *bitmap;
    15d2:	4699      	mov	r9, r3
/home/manga/Projects/Pokitto/zboy-0.60/PokittoLib/POKITTO_CORE/PokittoDisplay.cpp:1544
                    if ((sourcepixel>>4) != invisiblecolor ) targetpixel = (targetpixel&0x0F) | (sourcepixel & 0xF0);
    15d4:	4361      	muls	r1, r4
/home/manga/Projects/Pokitto/zboy-0.60/PokittoLib/POKITTO_CORE/PokittoDisplay.cpp:1543
                    uint8_t targetpixel = *scrptr;
    15d6:	4449      	add	r1, r9
/home/manga/Projects/Pokitto/zboy-0.60/PokittoLib/POKITTO_CORE/PokittoDisplay.cpp:1544
                    if ((sourcepixel>>4) != invisiblecolor ) targetpixel = (targetpixel&0x0F) | (sourcepixel & 0xF0);
    15d8:	b28b      	uxth	r3, r1
    15da:	4939      	ldr	r1, [pc, #228]	; (16c0 <_ZN7Pokitto7Display10bufferCharEsst+0x35c>)
    15dc:	9c04      	ldr	r4, [sp, #16]
    15de:	6809      	ldr	r1, [r1, #0]
    15e0:	18c9      	adds	r1, r1, r3
    15e2:	780b      	ldrb	r3, [r1, #0]
    15e4:	2c03      	cmp	r4, #3
    15e6:	d100      	bne.n	15ea <_ZN7Pokitto7Display10bufferCharEsst+0x286>
    15e8:	e087      	b.n	16fa <_ZN7Pokitto7Display10bufferCharEsst+0x396>
    15ea:	b25b      	sxtb	r3, r3
    15ec:	2c02      	cmp	r4, #2
    15ee:	d100      	bne.n	15f2 <_ZN7Pokitto7Display10bufferCharEsst+0x28e>
    15f0:	e0c2      	b.n	1778 <_ZN7Pokitto7Display10bufferCharEsst+0x414>
/home/manga/Projects/Pokitto/zboy-0.60/PokittoLib/POKITTO_CORE/PokittoDisplay.cpp:1545
                    if ((sourcepixel&0x0F) != invisiblecolor) targetpixel = (targetpixel & 0xF0) | (sourcepixel & 0x0F);
    15f2:	2c01      	cmp	r4, #1
    15f4:	d100      	bne.n	15f8 <_ZN7Pokitto7Display10bufferCharEsst+0x294>
/home/manga/Projects/Pokitto/zboy-0.60/PokittoLib/POKITTO_CORE/PokittoDisplay.cpp:1546
                    *scrptr = targetpixel;
    15f6:	e09f      	b.n	1738 <_ZN7Pokitto7Display10bufferCharEsst+0x3d4>
    15f8:	243f      	movs	r4, #63	; 0x3f
/home/manga/Projects/Pokitto/zboy-0.60/PokittoLib/POKITTO_CORE/PokittoDisplay.cpp:1550
                if (xclip){
    15fa:	01ad      	lsls	r5, r5, #6
    15fc:	4023      	ands	r3, r4
    15fe:	432b      	orrs	r3, r5
/home/manga/Projects/Pokitto/zboy-0.60/PokittoLib/POKITTO_CORE/PokittoDisplay.cpp:1551
                    if (w&1) {
    1600:	e07d      	b.n	16fe <_ZN7Pokitto7Display10bufferCharEsst+0x39a>
    1602:	45c1      	cmp	r9, r8
    1604:	d8db      	bhi.n	15be <_ZN7Pokitto7Display10bufferCharEsst+0x25a>
/home/manga/Projects/Pokitto/zboy-0.60/PokittoLib/POKITTO_CORE/PokittoDisplay.cpp:1554
                        if ((sourcepixel&0x0F) != invisiblecolor) {
    1606:	7833      	ldrb	r3, [r6, #0]
    1608:	9c02      	ldr	r4, [sp, #8]
/home/manga/Projects/Pokitto/zboy-0.60/PokittoLib/POKITTO_CORE/PokittoDisplay.cpp:1553
                        uint8_t sourcepixel = *bitmap;
    160a:	42a3      	cmp	r3, r4
/home/manga/Projects/Pokitto/zboy-0.60/PokittoLib/POKITTO_CORE/PokittoDisplay.cpp:1554
                        if ((sourcepixel&0x0F) != invisiblecolor) {
    160c:	d800      	bhi.n	1610 <_ZN7Pokitto7Display10bufferCharEsst+0x2ac>
    160e:	e73f      	b.n	1490 <_ZN7Pokitto7Display10bufferCharEsst+0x12c>
    1610:	2303      	movs	r3, #3
    1612:	401d      	ands	r5, r3
/home/manga/Projects/Pokitto/zboy-0.60/PokittoLib/POKITTO_CORE/PokittoDisplay.cpp:1556
                            uint8_t targetpixel = *scrptr;// & 0x0F;
    1614:	108b      	asrs	r3, r1, #2
/home/manga/Projects/Pokitto/zboy-0.60/PokittoLib/POKITTO_CORE/PokittoDisplay.cpp:1555
                            sourcepixel <<=4;
    1616:	990a      	ldr	r1, [sp, #40]	; 0x28
/home/manga/Projects/Pokitto/zboy-0.60/PokittoLib/POKITTO_CORE/PokittoDisplay.cpp:1557
                            targetpixel |= sourcepixel;
    1618:	4363      	muls	r3, r4
/home/manga/Projects/Pokitto/zboy-0.60/PokittoLib/POKITTO_CORE/PokittoDisplay.cpp:1558
                            *scrptr = targetpixel;
    161a:	468c      	mov	ip, r1
/home/manga/Projects/Pokitto/zboy-0.60/PokittoLib/POKITTO_CORE/PokittoDisplay.cpp:1562
                    bitmap++;
    161c:	4928      	ldr	r1, [pc, #160]	; (16c0 <_ZN7Pokitto7Display10bufferCharEsst+0x35c>)
/home/manga/Projects/Pokitto/zboy-0.60/PokittoLib/POKITTO_CORE/PokittoDisplay.cpp:1563
                    scrptr++;
    161e:	4463      	add	r3, ip
/home/manga/Projects/Pokitto/zboy-0.60/PokittoLib/POKITTO_CORE/PokittoDisplay.cpp:1565
                bitmap += xjump; // needed if x<0 clipping occurs
    1620:	6809      	ldr	r1, [r1, #0]
    1622:	b29b      	uxth	r3, r3
    1624:	9c05      	ldr	r4, [sp, #20]
    1626:	18cb      	adds	r3, r1, r3
    1628:	7819      	ldrb	r1, [r3, #0]
/home/manga/Projects/Pokitto/zboy-0.60/PokittoLib/POKITTO_CORE/PokittoDisplay.cpp:1583 (discriminator 2)
                    bitmap++;
                }
                bitmap+=xjump;
            }
            // increment the y jump in the scrptr
            scrptr = scrptr + ((width - w)>>1)+scrxjump;
    162a:	2c03      	cmp	r4, #3
    162c:	d036      	beq.n	169c <_ZN7Pokitto7Display10bufferCharEsst+0x338>
    162e:	b249      	sxtb	r1, r1
    1630:	2c02      	cmp	r4, #2
    1632:	d100      	bne.n	1636 <_ZN7Pokitto7Display10bufferCharEsst+0x2d2>
    1634:	e09a      	b.n	176c <_ZN7Pokitto7Display10bufferCharEsst+0x408>
    1636:	2c01      	cmp	r4, #1
    1638:	d100      	bne.n	163c <_ZN7Pokitto7Display10bufferCharEsst+0x2d8>
/home/manga/Projects/Pokitto/zboy-0.60/PokittoLib/POKITTO_CORE/PokittoDisplay.cpp:1534 (discriminator 2)
    for (scry = y; scry < y+h; scry+=1) {
    163a:	e077      	b.n	172c <_ZN7Pokitto7Display10bufferCharEsst+0x3c8>
    163c:	263f      	movs	r6, #63	; 0x3f
    163e:	01ad      	lsls	r5, r5, #6
    1640:	4031      	ands	r1, r6
    1642:	430d      	orrs	r5, r1
    1644:	e02c      	b.n	16a0 <_ZN7Pokitto7Display10bufferCharEsst+0x33c>
/home/manga/Projects/Pokitto/zboy-0.60/PokittoLib/POKITTO_CORE/PokittoDisplay.cpp:1535
            if (scry>=height) return;
    1646:	43a1      	bics	r1, r4
    1648:	4329      	orrs	r1, r5
    164a:	e720      	b.n	148e <_ZN7Pokitto7Display10bufferCharEsst+0x12a>
    164c:	002f      	movs	r7, r5
    164e:	2000      	movs	r0, #0
    1650:	4b1d      	ldr	r3, [pc, #116]	; (16c8 <_ZN7Pokitto7Display10bufferCharEsst+0x364>)
/home/manga/Projects/Pokitto/zboy-0.60/PokittoLib/POKITTO_CORE/PokittoDisplay.cpp:1567
                for (scrx = x; scrx < w+x-xclip; scrx+=2) {
    1652:	5618      	ldrsb	r0, [r3, r0]
    1654:	9b0e      	ldr	r3, [sp, #56]	; 0x38
    1656:	469c      	mov	ip, r3
    1658:	4460      	add	r0, ip
_ZN7Pokitto7Display10bufferCharEsst():
/home/manga/Projects/Pokitto/zboy-0.60/PokittoLib/POKITTO_CORE/PokittoDisplay.cpp:1567
    165a:	2f02      	cmp	r7, #2
    165c:	d100      	bne.n	1660 <_ZN7Pokitto7Display10bufferCharEsst+0x2fc>
    165e:	e098      	b.n	1792 <_ZN7Pokitto7Display10bufferCharEsst+0x42e>
/home/manga/Projects/Pokitto/zboy-0.60/PokittoLib/POKITTO_CORE/PokittoDisplay.cpp:1571
                    if((sourcepixel>>4)!=invisiblecolor) targetpixel = (targetpixel & 0xF0) | (sourcepixel >> 4 );
    1660:	b011      	add	sp, #68	; 0x44
/home/manga/Projects/Pokitto/zboy-0.60/PokittoLib/POKITTO_CORE/PokittoDisplay.cpp:1568
                    uint8_t sourcepixel = *bitmap;
    1662:	bc3c      	pop	{r2, r3, r4, r5}
/home/manga/Projects/Pokitto/zboy-0.60/PokittoLib/POKITTO_CORE/PokittoDisplay.cpp:1571
                    if((sourcepixel>>4)!=invisiblecolor) targetpixel = (targetpixel & 0xF0) | (sourcepixel >> 4 );
    1664:	4690      	mov	r8, r2
    1666:	4699      	mov	r9, r3
    1668:	46a2      	mov	sl, r4
    166a:	46ab      	mov	fp, r5
    166c:	bdf0      	pop	{r4, r5, r6, r7, pc}
_ZN7Pokitto7Display9drawPixelEssh():
/home/manga/Projects/Pokitto/zboy-0.60/PokittoLib/POKITTO_CORE/PokittoDisplay.cpp:1571
    166e:	260c      	movs	r6, #12
    1670:	00ad      	lsls	r5, r5, #2
/home/manga/Projects/Pokitto/zboy-0.60/PokittoLib/POKITTO_CORE/PokittoDisplay.cpp:1576
                    if((sourcepixel&0x0F)!=invisiblecolor) targetpixel = (targetpixel & 0x0F) | (sourcepixel << 4);
    1672:	43b1      	bics	r1, r6
/home/manga/Projects/Pokitto/zboy-0.60/PokittoLib/POKITTO_CORE/PokittoDisplay.cpp:1572
                    *scrptr = targetpixel;
    1674:	4329      	orrs	r1, r5
/home/manga/Projects/Pokitto/zboy-0.60/PokittoLib/POKITTO_CORE/PokittoDisplay.cpp:1576
                    if((sourcepixel&0x0F)!=invisiblecolor) targetpixel = (targetpixel & 0x0F) | (sourcepixel << 4);
    1676:	b2c9      	uxtb	r1, r1
/home/manga/Projects/Pokitto/zboy-0.60/PokittoLib/POKITTO_CORE/PokittoDisplay.cpp:1573
                    scrptr++;
    1678:	e709      	b.n	148e <_ZN7Pokitto7Display10bufferCharEsst+0x12a>
/home/manga/Projects/Pokitto/zboy-0.60/PokittoLib/POKITTO_CORE/PokittoDisplay.cpp:1576
                    if((sourcepixel&0x0F)!=invisiblecolor) targetpixel = (targetpixel & 0x0F) | (sourcepixel << 4);
    167a:	43a1      	bics	r1, r4
    167c:	9c0f      	ldr	r4, [sp, #60]	; 0x3c
/home/manga/Projects/Pokitto/zboy-0.60/PokittoLib/POKITTO_CORE/PokittoDisplay.cpp:1574
                    targetpixel = *scrptr;
    167e:	430c      	orrs	r4, r1
/home/manga/Projects/Pokitto/zboy-0.60/PokittoLib/POKITTO_CORE/PokittoDisplay.cpp:1576
                    if((sourcepixel&0x0F)!=invisiblecolor) targetpixel = (targetpixel & 0x0F) | (sourcepixel << 4);
    1680:	0021      	movs	r1, r4
    1682:	7031      	strb	r1, [r6, #0]
_ZN7Pokitto7Display10bufferCharEsst():
/home/manga/Projects/Pokitto/zboy-0.60/PokittoLib/POKITTO_CORE/PokittoDisplay.cpp:1576
    1684:	4661      	mov	r1, ip
    1686:	780d      	ldrb	r5, [r1, #0]
_ZN7Pokitto7Display9drawPixelEssh():
/home/manga/Projects/Pokitto/zboy-0.60/PokittoLib/POKITTO_CORE/PokittoDisplay.cpp:1576
    1688:	4651      	mov	r1, sl
    168a:	8809      	ldrh	r1, [r1, #0]
    168c:	428d      	cmp	r5, r1
    168e:	d100      	bne.n	1692 <_ZN7Pokitto7Display10bufferCharEsst+0x32e>
    1690:	e6fe      	b.n	1490 <_ZN7Pokitto7Display10bufferCharEsst+0x12c>
    1692:	9908      	ldr	r1, [sp, #32]
/home/manga/Projects/Pokitto/zboy-0.60/PokittoLib/POKITTO_CORE/PokittoDisplay.cpp:1577
                    *scrptr = targetpixel;
    1694:	7809      	ldrb	r1, [r1, #0]
/home/manga/Projects/Pokitto/zboy-0.60/PokittoLib/POKITTO_CORE/PokittoDisplay.cpp:1578
                    bitmap++;
    1696:	b28c      	uxth	r4, r1
/home/manga/Projects/Pokitto/zboy-0.60/PokittoLib/POKITTO_CORE/PokittoDisplay.cpp:1567
                for (scrx = x; scrx < w+x-xclip; scrx+=2) {
    1698:	46a1      	mov	r9, r4
    169a:	e767      	b.n	156c <_ZN7Pokitto7Display10bufferCharEsst+0x208>
    169c:	43a1      	bics	r1, r4
    169e:	430d      	orrs	r5, r1
    16a0:	701d      	strb	r5, [r3, #0]
    16a2:	4b02      	ldr	r3, [pc, #8]	; (16ac <_ZN7Pokitto7Display10bufferCharEsst+0x348>)
/home/manga/Projects/Pokitto/zboy-0.60/PokittoLib/POKITTO_CORE/PokittoDisplay.cpp:1580
                bitmap+=xjump;
    16a4:	781d      	ldrb	r5, [r3, #0]
    16a6:	e6f5      	b.n	1494 <_ZN7Pokitto7Display10bufferCharEsst+0x130>
    16a8:	100018fc 	.word	0x100018fc
    16ac:	10000112 	.word	0x10000112
/home/manga/Projects/Pokitto/zboy-0.60/PokittoLib/POKITTO_CORE/PokittoDisplay.cpp:1578
                    bitmap++;
    16b0:	1000010a 	.word	0x1000010a
/home/manga/Projects/Pokitto/zboy-0.60/PokittoLib/POKITTO_CORE/PokittoDisplay.cpp:1567
                for (scrx = x; scrx < w+x-xclip; scrx+=2) {
    16b4:	1000010e 	.word	0x1000010e
/home/manga/Projects/Pokitto/zboy-0.60/PokittoLib/POKITTO_CORE/PokittoDisplay.cpp:1537
                for (scrx = x; scrx < w+x-xclip; scrx+=2) {
    16b8:	10000110 	.word	0x10000110
    16bc:	10000111 	.word	0x10000111
/home/manga/Projects/Pokitto/zboy-0.60/PokittoLib/POKITTO_CORE/PokittoDisplay.cpp:1545
                    if ((sourcepixel&0x0F) != invisiblecolor) targetpixel = (targetpixel & 0xF0) | (sourcepixel & 0x0F);
    16c0:	10001b08 	.word	0x10001b08
/home/manga/Projects/Pokitto/zboy-0.60/PokittoLib/POKITTO_CORE/PokittoDisplay.cpp:1546
                    *scrptr = targetpixel;
    16c4:	10001902 	.word	0x10001902
/home/manga/Projects/Pokitto/zboy-0.60/PokittoLib/POKITTO_CORE/PokittoDisplay.cpp:1547
                    bitmap++;
    16c8:	10000108 	.word	0x10000108
/home/manga/Projects/Pokitto/zboy-0.60/PokittoLib/POKITTO_CORE/PokittoDisplay.cpp:1537
                for (scrx = x; scrx < w+x-xclip; scrx+=2) {
    16cc:	43a3      	bics	r3, r4
    16ce:	9c0f      	ldr	r4, [sp, #60]	; 0x3c
/home/manga/Projects/Pokitto/zboy-0.60/PokittoLib/POKITTO_CORE/PokittoDisplay.cpp:1544
                    if ((sourcepixel>>4) != invisiblecolor ) targetpixel = (targetpixel&0x0F) | (sourcepixel & 0xF0);
    16d0:	431c      	orrs	r4, r3
/home/manga/Projects/Pokitto/zboy-0.60/PokittoLib/POKITTO_CORE/PokittoDisplay.cpp:1538
                    uint8_t sourcepixel = *bitmap;
    16d2:	0023      	movs	r3, r4
/home/manga/Projects/Pokitto/zboy-0.60/PokittoLib/POKITTO_CORE/PokittoDisplay.cpp:1544
                    if ((sourcepixel>>4) != invisiblecolor ) targetpixel = (targetpixel&0x0F) | (sourcepixel & 0xF0);
    16d4:	700b      	strb	r3, [r1, #0]
/home/manga/Projects/Pokitto/zboy-0.60/PokittoLib/POKITTO_CORE/PokittoDisplay.cpp:1541
                            sourcepixel |= ((*(bitmap+1))>>4);
    16d6:	4663      	mov	r3, ip
/home/manga/Projects/Pokitto/zboy-0.60/PokittoLib/POKITTO_CORE/PokittoDisplay.cpp:1544
                    if ((sourcepixel>>4) != invisiblecolor ) targetpixel = (targetpixel&0x0F) | (sourcepixel & 0xF0);
    16d8:	781d      	ldrb	r5, [r3, #0]
/home/manga/Projects/Pokitto/zboy-0.60/PokittoLib/POKITTO_CORE/PokittoDisplay.cpp:1540
                            sourcepixel <<=4;
    16da:	4653      	mov	r3, sl
/home/manga/Projects/Pokitto/zboy-0.60/PokittoLib/POKITTO_CORE/PokittoDisplay.cpp:1541
                            sourcepixel |= ((*(bitmap+1))>>4);
    16dc:	881b      	ldrh	r3, [r3, #0]
    16de:	429d      	cmp	r5, r3
    16e0:	d100      	bne.n	16e4 <_ZN7Pokitto7Display10bufferCharEsst+0x380>
/home/manga/Projects/Pokitto/zboy-0.60/PokittoLib/POKITTO_CORE/PokittoDisplay.cpp:1543
                    uint8_t targetpixel = *scrptr;
    16e2:	e6d5      	b.n	1490 <_ZN7Pokitto7Display10bufferCharEsst+0x12c>
/home/manga/Projects/Pokitto/zboy-0.60/PokittoLib/POKITTO_CORE/PokittoDisplay.cpp:1544
                    if ((sourcepixel>>4) != invisiblecolor ) targetpixel = (targetpixel&0x0F) | (sourcepixel & 0xF0);
    16e4:	9b08      	ldr	r3, [sp, #32]
    16e6:	7819      	ldrb	r1, [r3, #0]
    16e8:	b28b      	uxth	r3, r1
    16ea:	4543      	cmp	r3, r8
    16ec:	d900      	bls.n	16f0 <_ZN7Pokitto7Display10bufferCharEsst+0x38c>
    16ee:	e766      	b.n	15be <_ZN7Pokitto7Display10bufferCharEsst+0x25a>
    16f0:	9c01      	ldr	r4, [sp, #4]
    16f2:	42a3      	cmp	r3, r4
    16f4:	d900      	bls.n	16f8 <_ZN7Pokitto7Display10bufferCharEsst+0x394>
    16f6:	e786      	b.n	1606 <_ZN7Pokitto7Display10bufferCharEsst+0x2a2>
    16f8:	e6ca      	b.n	1490 <_ZN7Pokitto7Display10bufferCharEsst+0x12c>
    16fa:	43a3      	bics	r3, r4
/home/manga/Projects/Pokitto/zboy-0.60/PokittoLib/POKITTO_CORE/PokittoDisplay.cpp:1545
                    if ((sourcepixel&0x0F) != invisiblecolor) targetpixel = (targetpixel & 0xF0) | (sourcepixel & 0x0F);
    16fc:	432b      	orrs	r3, r5
    16fe:	700b      	strb	r3, [r1, #0]
_ZN7Pokitto7Display10bufferCharEsst():
/home/manga/Projects/Pokitto/zboy-0.60/PokittoLib/POKITTO_CORE/PokittoDisplay.cpp:1546
                    *scrptr = targetpixel;
    1700:	4663      	mov	r3, ip
    1702:	781d      	ldrb	r5, [r3, #0]
_ZN7Pokitto7Display9drawPixelEssh():
/home/manga/Projects/Pokitto/zboy-0.60/PokittoLib/POKITTO_CORE/PokittoDisplay.cpp:1546
    1704:	4653      	mov	r3, sl
    1706:	881b      	ldrh	r3, [r3, #0]
    1708:	429d      	cmp	r5, r3
    170a:	d100      	bne.n	170e <_ZN7Pokitto7Display10bufferCharEsst+0x3aa>
    170c:	e6c0      	b.n	1490 <_ZN7Pokitto7Display10bufferCharEsst+0x12c>
    170e:	9b08      	ldr	r3, [sp, #32]
/home/manga/Projects/Pokitto/zboy-0.60/PokittoLib/POKITTO_CORE/PokittoDisplay.cpp:1473
